Microchip MPLAB XC8 Compiler V2.40

Linker command line:

-W-3 \
  --edf=C:\Program Files\Microchip\xc8\v2.40\pic\dat\20220703182018_en.msgs \
  -cn -h+dist/default/production\NRF.X.production.sym \
  --cmf=dist/default/production\NRF.X.production.cmf -z -Q16F887 \
  -oC:\Users\marti\AppData\Local\Temp\xcAs6n0.4 --fixupoverflow=error \
  -Mdist/default/production/NRF.X.production.map \
  --md=C:\Users\marti\AppData\Local\Temp\xcAs6n0.dat -E1 -ver=XC8 Compiler \
  --acfsm=1493 -ACODE=00h-07FFhx4 -ASTRCODE=00h-01FFFh -ASTRING=00h-0FFhx32 \
  -ACONST=00h-0FFhx32 -AENTRY=00h-0FFhx32 -ACOMMON=070h-07Fh \
  -ABANK0=020h-06Fh -ABANK1=0A0h-0EFh -ABANK2=0110h-016Fh \
  -ABANK3=0190h-01EFh -ARAM=020h-06Fh,0A0h-0EFh,0110h-016Fh,0190h-01EFh \
  -AABS1=020h-07Fh,0A0h-0EFh,0110h-016Fh,0190h-01EFh -ASFR0=00h-01Fh \
  -ASFR1=080h-09Fh -ASFR2=0100h-010Fh -ASFR3=0180h-018Fh \
  -ACONFIG=02007h-02008h -DCONFIG=2 -AIDLOC=02000h-02003h -DIDLOC=2 \
  -AEEDATA=00h-0FFh/02100h -peeprom_data=EEDATA -DEEDATA=2 -DCODE=2 \
  -DSTRCODE=2 -DSTRING=2 -DCONST=2 -DENTRY=2 \
  -preset_vec=00h,intentry,init,end_init -ppowerup=CODE -pcinit=CODE \
  -pfunctab=ENTRY -k C:\Users\marti\AppData\Local\Temp\xcAs6n0.o \
  dist/default/production\NRF.X.production.o 

Object code version is 3.11

Machine type is 16F887



                Name                               Link     Load   Length Selector   Space Scale
C:\Users\marti\AppData\Local\Temp\xcAs6n0.o
                end_init                              0        0        3        0       0
                config                             2007     2007        2        0       4
dist/default/production\NRF.X.production.o
                cinit                               7D0      7D0       30      FA0       0
                config                             2007     2007        2        0       4
                text18                              3A3      3A3        C      746       0
                text17                              5E3      5E3       9D      BC6       0
                text16                              507      507       6B      A0E       0
                text15                              3AF      3AF        C      75E       0
                text14                              4D0      4D0       37      9A0       0
                text13                              3E2      3E2        F      7C4       0
                text12                              3F1      3F1       10      7E2       0
                text11                              3D4      3D4        E      7A8       0
                text10                              49F      49F       31      93E       0
                text9                               3BB      3BB        C      776       0
                text8                               477      477       28      8EE       0
                text7                               3C7      3C7        D      78E       0
                text6                               455      455       22      8AA       0
                text5                               437      437       1E      86E       0
                text4                               41A      41A       1D      834       0
                text3                               401      401       19      802       0
                text2                               727      727       A9      E4E       0
                text1                               680      680       A7      D00       0
                maintext                            572      572       71      AE4       0
                cstackBANK0                          20       20       1D       20       1
                cstackCOMMON                         70       70        D       70       1
                cstackBANK1                          A0       A0       40       A0       1
                cstackBANK3                         190      190       40      190       1
                dataBANK1                            E0       E0        5       A0       1
                bssBANK0                             3D       3D        A       20       1
                strings                               3        3       3E        6       0
                idataBANK1                          39E      39E        5      73C       0

TOTAL           Name                               Link     Load   Length     Space
        CLASS   CODE           
                end_init                              0        0        3         0
                cinit                               7D0      7D0       30         0
                text18                              3A3      3A3        C         0
                text17                              5E3      5E3       9D         0
                text16                              507      507       6B         0
                text15                              3AF      3AF        C         0
                text14                              4D0      4D0       37         0
                text13                              3E2      3E2        F         0
                text12                              3F1      3F1       10         0
                text11                              3D4      3D4        E         0
                text10                              49F      49F       31         0
                text9                               3BB      3BB        C         0
                text8                               477      477       28         0
                text7                               3C7      3C7        D         0
                text6                               455      455       22         0
                text5                               437      437       1E         0
                text4                               41A      41A       1D         0
                text3                               401      401       19         0
                text2                               727      727       A9         0
                text1                               680      680       A7         0
                maintext                            572      572       71         0
                idataBANK1                          39E      39E        5         0

        CLASS   STRCODE        

        CLASS   STRING         
                strings                               3        3       3E         0

        CLASS   CONST          

        CLASS   ENTRY          

        CLASS   COMMON         
                cstackCOMMON                         70       70        D         1

        CLASS   BANK0          
                cstackBANK0                          20       20       1D         1
                bssBANK0                             3D       3D        A         1

        CLASS   BANK1          
                cstackBANK1                          A0       A0       40         1
                dataBANK1                            E0       E0        5         1

        CLASS   BANK2          

        CLASS   BANK3          
                cstackBANK3                         190      190       40         1

        CLASS   RAM            

        CLASS   ABS1           
                abs_s1                               7E       7E        2         1

        CLASS   SFR0           

        CLASS   SFR1           

        CLASS   SFR2           

        CLASS   SFR3           

        CLASS   CONFIG         
                config                             2007     2007        2         4

        CLASS   IDLOC          

        CLASS   EEDATA         

        CLASS   STACK          



SEGMENTS        Name                           Load    Length   Top    Selector   Space  Class     Delta

                reset_vec                      000000  000003  000003         0       0  CODE        2
                strings                        000003  00003E  000041         6       0  STRING      2
                cstackBANK0                    000020  000027  000047        20       1  BANK0       1
                cstackCOMMON                   000070  00000D  00007D        70       1  COMMON      1
                cstackBANK1                    0000A0  000045  0000E5        A0       1  BANK1       1
                cstackBANK3                    000190  000040  0001D0       190       1  BANK3       1
                idataBANK1                     00039E  000005  0003A3       73C       0  CODE        2
                text18                         0003A3  00000C  0003AF       746       0  CODE        2
                text15                         0003AF  00000C  0003BB       75E       0  CODE        2
                text9                          0003BB  00000C  0003C7       776       0  CODE        2
                text7                          0003C7  00000D  0003D4       78E       0  CODE        2
                text11                         0003D4  00000E  0003E2       7A8       0  CODE        2
                text13                         0003E2  00000F  0003F1       7C4       0  CODE        2
                text12                         0003F1  000010  000401       7E2       0  CODE        2
                text3                          000401  000019  00041A       802       0  CODE        2
                text4                          00041A  00001D  000437       834       0  CODE        2
                text5                          000437  00001E  000455       86E       0  CODE        2
                text6                          000455  000022  000477       8AA       0  CODE        2
                text8                          000477  000028  00049F       8EE       0  CODE        2
                text10                         00049F  000031  0004D0       93E       0  CODE        2
                text14                         0004D0  000037  000507       9A0       0  CODE        2
                text16                         000507  00006B  000572       A0E       0  CODE        2
                maintext                       000572  000071  0005E3       AE4       0  CODE        2
                text17                         0005E3  00009D  000680       BC6       0  CODE        2
                text1                          000680  0000A7  000727       D00       0  CODE        2
                text2                          000727  0000A9  0007D0       E4E       0  CODE        2
                cinit                          0007D0  000030  000800       FA0       0  CODE        2


UNUSED ADDRESS RANGES

        Name                Unused          Largest block    Delta
        BANK0            0047-006F             29           1
        BANK1            00E5-00EF              B           1
        BANK2            0110-016F             60           1
        BANK3            01D0-01EF             20           1
        CODE             0041-039D            35D           2
                         0800-1FFF            800
        COMMON           007D-007D              1           1
        CONST            0041-039D            100           2
                         0800-1FFF            100
        EEDATA           2100-21FF            100           2
        ENTRY            0041-039D            100           2
                         0800-1FFF            100
        IDLOC            2000-2003              4           2
        RAM              0047-006F             29           1
                         00E5-00EF              B
                         0110-016F             60
                         01D0-01EF             20
        SFR0             0000-001F             20           1
        SFR1             0080-009F             20           1
        SFR2             0100-010F             10           1
        SFR3             0180-018F             10           1
        STRCODE          0041-039D            35D           2
                         0800-1FFF           1800
        STRING           0041-039D            100           2
                         0800-1FFF            100

                                  Symbol Table

?___aldiv                                cstackCOMMON 0070
?_sprintf                                cstackBANK0  0020
SPI_write@data                           cstackCOMMON 0070
UART_init@_XTAL_FREQ                     cstackBANK0  002A
UART_init@baudrate                       cstackBANK0  0026
UART_write@data                          cstackCOMMON 0070
UART_write_text@i                        cstackCOMMON 0076
UART_write_text@text                     cstackCOMMON 0071
_BF                                      (abs)        04A0
_BRGH                                    (abs)        04C2
_CREN                                    (abs)        00C4
_OSCCONbits                              (abs)        008F
_RADIO_ADDR                              dataBANK1    00E0
_RCIF                                    (abs)        0065
_RCREG                                   (abs)        001A
_RD2                                     (abs)        0042
_RD3                                     (abs)        0043
_SPBRG                                   (abs)        0099
_SPEN                                    (abs)        00C7
_SPI_init_master                         text18       03A3
_SPI_write                               text13       03E2
_SSPBUF                                  (abs)        0013
_SSPCON                                  (abs)        0014
_SSPSTAT                                 (abs)        0094
_SYNC                                    (abs)        04C4
_TRISC2                                  (abs)        043A
_TRISC4                                  (abs)        043C
_TRISC5                                  (abs)        043D
_TRISC6                                  (abs)        043E
_TRISC7                                  (abs)        043F
_TRISD2                                  (abs)        0442
_TRISD3                                  (abs)        0443
_TRMT                                    (abs)        04C1
_TXEN                                    (abs)        04C5
_TXREG                                   (abs)        0019
_UART_init                               text16       0507
_UART_write                              text15       03AF
_UART_write_text                         text14       04D0
__Habs1                                  abs1         0000
__Hbank0                                 bank0        0000
__Hbank1                                 bank1        0000
__Hbank2                                 bank2        0000
__Hbank3                                 bank3        0000
__HbssBANK0                              bssBANK0     0000
__Hcinit                                 cinit        0800
__Hclrtext                               clrtext      0000
__Hcode                                  code         0000
__Hcommon                                common       0000
__Hconfig                                config       2009
__HcstackBANK0                           cstackBANK0  0000
__HcstackBANK1                           cstackBANK1  0000
__HcstackBANK3                           cstackBANK3  0000
__HcstackCOMMON                          cstackCOMMON 0000
__HdataBANK1                             dataBANK1    0000
__Heeprom_data                           eeprom_data  0000
__Hend_init                              end_init     0003
__Hfunctab                               functab      0000
__HidataBANK1                            idataBANK1   0000
__Hinit                                  init         0000
__Hintentry                              intentry     0000
__Hmaintext                              maintext     0000
__Hpowerup                               powerup      0000
__Hram                                   ram          0000
__Hreset_vec                             reset_vec    0000
__Hsfr0                                  sfr0         0000
__Hsfr1                                  sfr1         0000
__Hsfr2                                  sfr2         0000
__Hsfr3                                  sfr3         0000
__Hspace_0                               (abs)        0800
__Hspace_1                               (abs)        01D0
__Hspace_2                               (abs)        0000
__Hspace_3                               (abs)        0000
__Hspace_4                               (abs)        4010
__Hstack                                 stack        0000
__Hstrings                               strings      0000
__Htext                                  text         0000
__Labs1                                  abs1         0000
__Lbank0                                 bank0        0000
__Lbank1                                 bank1        0000
__Lbank2                                 bank2        0000
__Lbank3                                 bank3        0000
__LbssBANK0                              bssBANK0     0000
__Lcinit                                 cinit        07D0
__Lclrtext                               clrtext      0000
__Lcode                                  code         0000
__Lcommon                                common       0000
__Lconfig                                config       0000
__LcstackBANK0                           cstackBANK0  0000
__LcstackBANK1                           cstackBANK1  0000
__LcstackBANK3                           cstackBANK3  0000
__LcstackCOMMON                          cstackCOMMON 0000
__LdataBANK1                             dataBANK1    0000
__Leeprom_data                           eeprom_data  0000
__Lend_init                              end_init     0000
__Lfunctab                               functab      0000
__LidataBANK1                            idataBANK1   0000
__Linit                                  init         0000
__Lintentry                              intentry     0000
__Lmaintext                              maintext     0000
__Lpowerup                               powerup      0000
__Lram                                   ram          0000
__Lreset_vec                             reset_vec    0000
__Lsfr0                                  sfr0         0000
__Lsfr1                                  sfr1         0000
__Lsfr2                                  sfr2         0000
__Lsfr3                                  sfr3         0000
__Lspace_0                               (abs)        0000
__Lspace_1                               (abs)        0000
__Lspace_2                               (abs)        0000
__Lspace_3                               (abs)        0000
__Lspace_4                               (abs)        0000
__Lstack                                 stack        0000
__Lstrings                               strings      0000
__Ltext                                  text         0000
__S0                                     (abs)        0800
__S1                                     (abs)        01D0
__S3                                     (abs)        0000
___aldiv                                 text17       05E3
___aldiv@counter                         cstackBANK0  0020
___aldiv@dividend                        cstackCOMMON 0074
___aldiv@divisor                         cstackCOMMON 0070
___aldiv@quotient                        cstackBANK0  0022
___aldiv@sign                            cstackBANK0  0021
___int_sp                                stack        0000
___latbits                               (abs)        0002
___sp                                    stack        0000
___stackhi                               (abs)        0000
___stacklo                               (abs)        0000
__end_of_SPI_init_master                 text18       03AF
__end_of_SPI_write                       text13       03F1
__end_of_UART_init                       text16       0572
__end_of_UART_write                      text15       03BB
__end_of_UART_write_text                 text14       0507
__end_of___aldiv                         text17       0680
__end_of__initialization                 cinit        07FC
__end_of__stringtab                      strings      0013
__end_of_arrcpy                          text4        0437
__end_of_main                            maintext     05E3
__end_of_nrf_command_with_data           text8        049F
__end_of_nrf_command_with_data_overwrite text10       04D0
__end_of_nrf_data_available              text11       03E2
__end_of_nrf_flush_rxtx                  text3        041A
__end_of_nrf_read                        text6        0477
__end_of_nrf_read_register               text9        03C7
__end_of_nrf_set_rx_mode                 text5        0455
__end_of_nrf_setup                       text2        07D0
__end_of_nrf_write_command               text12       0401
__end_of_nrf_write_register              text7        03D4
__end_of_sprintf                         text1        0727
__initialization                         cinit        07D0
__pbssBANK0                              bssBANK0     003D
__pcstackBANK0                           cstackBANK0  0020
__pcstackBANK1                           cstackBANK1  00A0
__pcstackBANK3                           cstackBANK3  0190
__pcstackCOMMON                          cstackCOMMON 0070
__pdataBANK1                             dataBANK1    00E0
__pidataBANK1                            idataBANK1   039E
__pmaintext                              maintext     0572
__pstrings                               strings      0003
__ptext1                                 text1        0680
__ptext10                                text10       049F
__ptext11                                text11       03D4
__ptext12                                text12       03F1
__ptext13                                text13       03E2
__ptext14                                text14       04D0
__ptext15                                text15       03AF
__ptext16                                text16       0507
__ptext17                                text17       05E3
__ptext18                                text18       03A3
__ptext2                                 text2        0727
__ptext3                                 text3        0401
__ptext4                                 text4        041A
__ptext5                                 text5        0437
__ptext6                                 text6        0455
__ptext7                                 text7        03C7
__ptext8                                 text8        0477
__ptext9                                 text9        03BB
__stringbase                             strings      0012
__stringtab                              strings      0003
_arrcpy                                  text4        041A
_main                                    maintext     0572
_nrf_command_with_data                   text8        0477
_nrf_command_with_data_overwrite         text10       049F
_nrf_data_available                      text11       03D4
_nrf_flush_rxtx                          text3        0401
_nrf_read                                text6        0455
_nrf_read_register                       text9        03BB
_nrf_set_rx_mode                         text5        0437
_nrf_setup                               text2        0727
_nrf_write_command                       text12       03F1
_nrf_write_register                      text7        03C7
_sprintf                                 text1        0680
arrcpy@dst                               cstackCOMMON 0075
arrcpy@i                                 cstackCOMMON 0076
arrcpy@len                               cstackCOMMON 0071
arrcpy@src                               cstackCOMMON 0070
btemp                                    (abs)        007E
char_to_binary_string@output             bssBANK0     003D
end_of_initialization                    cinit        07FC
intlevel0                                functab      0000
intlevel1                                functab      0000
intlevel2                                functab      0000
intlevel3                                functab      0000
intlevel4                                functab      0000
intlevel5                                functab      0000
main@buffer                              cstackBANK1  00A0
main@buffer_197                          cstackBANK3  0190
main@data                                cstackBANK0  003A
nrf_command_with_data@command            cstackCOMMON 0074
nrf_command_with_data@data               cstackCOMMON 0071
nrf_command_with_data@i                  cstackCOMMON 0076
nrf_command_with_data@len                cstackCOMMON 0072
nrf_command_with_data@status             cstackCOMMON 0075
nrf_command_with_data_overwrite@command  cstackCOMMON 0076
nrf_command_with_data_overwrite@data     cstackCOMMON 0071
nrf_command_with_data_overwrite@i        cstackCOMMON 0078
nrf_command_with_data_overwrite@len      cstackCOMMON 0072
nrf_command_with_data_overwrite@status   cstackCOMMON 0077
nrf_data_available@status                cstackCOMMON 0073
nrf_flush_rxtx@data                      cstackCOMMON 007A
nrf_read@clear                           cstackBANK0  0021
nrf_read@data                            cstackBANK0  0020
nrf_read@len                             cstackCOMMON 007C
nrf_read_register@data                   cstackCOMMON 0079
nrf_read_register@len                    cstackCOMMON 007A
nrf_read_register@reg                    cstackCOMMON 007B
nrf_set_rx_mode@config                   cstackCOMMON 007C
nrf_setup@addr                           cstackBANK0  0020
nrf_setup@data                           cstackBANK0  0021
nrf_setup@payload_size                   cstackCOMMON 007B
nrf_write_command@command                cstackCOMMON 0071
nrf_write_command@status                 cstackCOMMON 0072
nrf_write_register@data                  cstackCOMMON 0077
nrf_write_register@len                   cstackCOMMON 0078
nrf_write_register@reg                   cstackCOMMON 0079
reset_vec                                reset_vec    0000
sprintf@ap                               cstackCOMMON 0072
sprintf@c                                cstackCOMMON 0075
sprintf@cp                               cstackCOMMON 0073
sprintf@f                                cstackBANK0  0022
sprintf@sp                               cstackBANK0  0020
start                                    init         0000
start_initialization                     cinit        07D0
wtemp0                                   (abs)        007E


MODULE INFORMATION

Module		Function		Class		Link	Load	Size
./spi.h
		_SPI_init_master		CODE           	03A3	0000	12
		_SPI_write     		CODE           	03E2	0000	15

./spi.h estimated size: 27

C:\Program Files\Microchip\xc8\v2.40\pic\sources\c90\common\aldiv.c
		___aldiv       		CODE           	05E3	0000	157

C:\Program Files\Microchip\xc8\v2.40\pic\sources\c90\common\aldiv.c estimated size: 157

./uart.h
		_UART_init     		CODE           	0507	0000	107
		_UART_write_text		CODE           	04D0	0000	55
		_UART_write    		CODE           	03AF	0000	12

./uart.h estimated size: 174

C:\Program Files\Microchip\xc8\v2.40\pic\sources\c90\common\doprnt.c
		_sprintf       		CODE           	0680	0000	167

C:\Program Files\Microchip\xc8\v2.40\pic\sources\c90\common\doprnt.c estimated size: 167

./nrf24l01.h
		_nrf_data_available		CODE           	03D4	0000	14
		_nrf_set_rx_mode		CODE           	0437	0000	30
		_nrf_command_with_data_overwrite		CODE           	049F	0000	49
		_nrf_read      		CODE           	0455	0000	34
		_nrf_write_command		CODE           	03F1	0000	16
		_nrf_setup     		CODE           	0727	0000	169
		_nrf_command_with_data		CODE           	0477	0000	40
		_nrf_read_register		CODE           	03BB	0000	12
		_nrf_flush_rxtx		CODE           	0401	0000	25
		_arrcpy        		CODE           	041A	0000	29
		_nrf_write_register		CODE           	03C7	0000	13

./nrf24l01.h estimated size: 431

shared
		__stringtab    		STRING         	0003	0000	16
		__initialization		CODE           	07D0	0000	44

shared estimated size: 60

main.c
		_main          		CODE           	0572	0000	113

main.c estimated size: 113

