

Microchip MPLAB XC8 Assembler V2.40 build 20220703182018 
                                                                                               Mon Sep 19 15:38:57 2022

Microchip MPLAB XC8 C Compiler v2.40 (Free license) build 20220703182018 Og1 
     1                           	processor	16F877A
     2                           	pagewidth 120
     3                           	opt	flic
     4                           	psect	strings,global,class=STRING,delta=2,noexec
     5                           	psect	cinit,global,class=CODE,merge=1,delta=2
     6                           	psect	cstackCOMMON,global,class=COMMON,space=1,delta=1,noexec
     7                           	psect	cstackBANK0,global,class=BANK0,space=1,delta=1,noexec
     8                           	psect	maintext,global,class=CODE,split=1,delta=2
     9                           	psect	text1,local,class=CODE,merge=1,delta=2,group=1
    10                           	psect	text2,local,class=CODE,merge=1,delta=2,group=3
    11                           	psect	text3,local,class=CODE,merge=1,delta=2,group=2
    12                           	psect	text4,local,class=CODE,merge=1,delta=2,group=2
    13                           	psect	text5,local,class=CODE,merge=1,delta=2,group=2
    14                           	psect	text6,local,class=CODE,merge=1,delta=2,group=2
    15                           	psect	text7,local,class=CODE,merge=1,delta=2,group=2
    16                           	psect	text8,local,class=CODE,merge=1,delta=2,group=2
    17                           	psect	text9,local,class=CODE,merge=1,delta=2
    18                           	psect	text10,local,class=CODE,merge=1,delta=2
    19                           	psect	text11,local,class=CODE,merge=1,delta=2
    20                           	psect	text12,local,class=CODE,merge=1,delta=2
    21                           	psect	text13,local,class=CODE,merge=1,delta=2
    22                           	psect	config,global,abs,ovrld,class=CONFIG,space=4,delta=2,noexec
    23                           	dabs	1,0x7E,2
    24     0000                     
    25                           ; Version 2.40
    26                           ; Generated 04/07/2022 GMT
    27                           ; 
    28                           ; Copyright © 2022, Microchip Technology Inc. and its subsidiaries ("Microchip")
    29                           ; All rights reserved.
    30                           ; 
    31                           ; This software is developed by Microchip Technology Inc. and its subsidiaries ("Microch
      +                          ip").
    32                           ; 
    33                           ; Redistribution and use in source and binary forms, with or without modification, are
    34                           ; permitted provided that the following conditions are met:
    35                           ; 
    36                           ;     1. Redistributions of source code must retain the above copyright notice, this lis
      +                          t of
    37                           ;        conditions and the following disclaimer.
    38                           ; 
    39                           ;     2. Redistributions in binary form must reproduce the above copyright notice, this 
      +                          list
    40                           ;        of conditions and the following disclaimer in the documentation and/or other
    41                           ;        materials provided with the distribution. Publication is not required when
    42                           ;        this file is used in an embedded application.
    43                           ; 
    44                           ;     3. Microchip's name may not be used to endorse or promote products derived from th
      +                          is
    45                           ;        software without specific prior written permission.
    46                           ; 
    47                           ; THIS SOFTWARE IS PROVIDED BY MICROCHIP "AS IS" AND ANY EXPRESS OR IMPLIED WARRANTIES,
    48                           ; INCLUDING, BUT NOT LIMITED TO, THE IMPLIED WARRANTIES OF MERCHANTABILITY AND FITNESS F
      +                          OR
    49                           ; PURPOSE ARE DISCLAIMED.  IN NO EVENT SHALL MICROCHIP BE LIABLE FOR ANY DIRECT, INDIREC
      +                          T,
    50                           ; INCIDENTAL, SPECIAL, EXEMPLARY, OR CONSEQUENTIAL DAMAGES (INCLUDING BUT NOT LIMITED TO
    51                           ; PROCUREMENT OF SUBSTITUTE GOODS OR SERVICES; LOSS OF USE, DATA OR PROFITS; OR BUSINESS
    52                           ; INTERRUPTION) HOWSOEVER CAUSED AND ON ANY THEORY OF LIABILITY, WHETHER IN CONTRACT, ST
      +                          RICT
    53                           ; LIABILITY, OR TORT (INCLUDING NEGLIGENCE OR OTHERWISE) ARISING IN ANY WAY OUT OF THE U
      +                          SE OF
    54                           ; THIS SOFTWARE, EVEN IF ADVISED OF THE POSSIBILITY OF SUCH DAMAGE.
    55                           ; 
    56                           ; 
    57                           ; Code-generator required, PIC16F877A Definitions
    58                           ; 
    59                           ; SFR Addresses
    60     0000                     	;# 
    61     0001                     	;# 
    62     0002                     	;# 
    63     0003                     	;# 
    64     0004                     	;# 
    65     0005                     	;# 
    66     0006                     	;# 
    67     0007                     	;# 
    68     0008                     	;# 
    69     0009                     	;# 
    70     000A                     	;# 
    71     000B                     	;# 
    72     000C                     	;# 
    73     000D                     	;# 
    74     000E                     	;# 
    75     000E                     	;# 
    76     000F                     	;# 
    77     0010                     	;# 
    78     0011                     	;# 
    79     0012                     	;# 
    80     0013                     	;# 
    81     0014                     	;# 
    82     0015                     	;# 
    83     0015                     	;# 
    84     0016                     	;# 
    85     0017                     	;# 
    86     0018                     	;# 
    87     0019                     	;# 
    88     001A                     	;# 
    89     001B                     	;# 
    90     001B                     	;# 
    91     001C                     	;# 
    92     001D                     	;# 
    93     001E                     	;# 
    94     001F                     	;# 
    95     0081                     	;# 
    96     0085                     	;# 
    97     0086                     	;# 
    98     0087                     	;# 
    99     0088                     	;# 
   100     0089                     	;# 
   101     008C                     	;# 
   102     008D                     	;# 
   103     008E                     	;# 
   104     0091                     	;# 
   105     0092                     	;# 
   106     0093                     	;# 
   107     0094                     	;# 
   108     0098                     	;# 
   109     0099                     	;# 
   110     009C                     	;# 
   111     009D                     	;# 
   112     009E                     	;# 
   113     009F                     	;# 
   114     010C                     	;# 
   115     010D                     	;# 
   116     010E                     	;# 
   117     010F                     	;# 
   118     018C                     	;# 
   119     018D                     	;# 
   120     0000                     	;# 
   121     0001                     	;# 
   122     0002                     	;# 
   123     0003                     	;# 
   124     0004                     	;# 
   125     0005                     	;# 
   126     0006                     	;# 
   127     0007                     	;# 
   128     0008                     	;# 
   129     0009                     	;# 
   130     000A                     	;# 
   131     000B                     	;# 
   132     000C                     	;# 
   133     000D                     	;# 
   134     000E                     	;# 
   135     000E                     	;# 
   136     000F                     	;# 
   137     0010                     	;# 
   138     0011                     	;# 
   139     0012                     	;# 
   140     0013                     	;# 
   141     0014                     	;# 
   142     0015                     	;# 
   143     0015                     	;# 
   144     0016                     	;# 
   145     0017                     	;# 
   146     0018                     	;# 
   147     0019                     	;# 
   148     001A                     	;# 
   149     001B                     	;# 
   150     001B                     	;# 
   151     001C                     	;# 
   152     001D                     	;# 
   153     001E                     	;# 
   154     001F                     	;# 
   155     0081                     	;# 
   156     0085                     	;# 
   157     0086                     	;# 
   158     0087                     	;# 
   159     0088                     	;# 
   160     0089                     	;# 
   161     008C                     	;# 
   162     008D                     	;# 
   163     008E                     	;# 
   164     0091                     	;# 
   165     0092                     	;# 
   166     0093                     	;# 
   167     0094                     	;# 
   168     0098                     	;# 
   169     0099                     	;# 
   170     009C                     	;# 
   171     009D                     	;# 
   172     009E                     	;# 
   173     009F                     	;# 
   174     010C                     	;# 
   175     010D                     	;# 
   176     010E                     	;# 
   177     010F                     	;# 
   178     018C                     	;# 
   179     018D                     	;# 
   180     0000                     	;# 
   181     0001                     	;# 
   182     0002                     	;# 
   183     0003                     	;# 
   184     0004                     	;# 
   185     0005                     	;# 
   186     0006                     	;# 
   187     0007                     	;# 
   188     0008                     	;# 
   189     0009                     	;# 
   190     000A                     	;# 
   191     000B                     	;# 
   192     000C                     	;# 
   193     000D                     	;# 
   194     000E                     	;# 
   195     000E                     	;# 
   196     000F                     	;# 
   197     0010                     	;# 
   198     0011                     	;# 
   199     0012                     	;# 
   200     0013                     	;# 
   201     0014                     	;# 
   202     0015                     	;# 
   203     0015                     	;# 
   204     0016                     	;# 
   205     0017                     	;# 
   206     0018                     	;# 
   207     0019                     	;# 
   208     001A                     	;# 
   209     001B                     	;# 
   210     001B                     	;# 
   211     001C                     	;# 
   212     001D                     	;# 
   213     001E                     	;# 
   214     001F                     	;# 
   215     0081                     	;# 
   216     0085                     	;# 
   217     0086                     	;# 
   218     0087                     	;# 
   219     0088                     	;# 
   220     0089                     	;# 
   221     008C                     	;# 
   222     008D                     	;# 
   223     008E                     	;# 
   224     0091                     	;# 
   225     0092                     	;# 
   226     0093                     	;# 
   227     0094                     	;# 
   228     0098                     	;# 
   229     0099                     	;# 
   230     009C                     	;# 
   231     009D                     	;# 
   232     009E                     	;# 
   233     009F                     	;# 
   234     010C                     	;# 
   235     010D                     	;# 
   236     010E                     	;# 
   237     010F                     	;# 
   238     018C                     	;# 
   239     018D                     	;# 
   240                           
   241                           	psect	strings
   242     0003                     __pstrings:
   243     0003                     stringtab:
   244     0003                     __stringtab:
   245                           
   246                           ;	String table - string pointers are 1 byte each
   247     0003  1BFF               	btfsc	btemp+1,7
   248     0004  280D               	ljmp	stringcode
   249     0005  1383               	bcf	3,7
   250     0006  187F               	btfsc	btemp+1,0
   251     0007  1783               	bsf	3,7
   252     0008  0800               	movf	0,w
   253     0009  0A84               	incf	4,f
   254     000A  1903               	skipnz
   255     000B  0AFF               	incf	btemp+1,f
   256     000C  0008               	return
   257     000D                     stringcode:
   258     000D                     stringdir:
   259     000D  3000               	movlw	high stringdir
   260     000E  008A               	movwf	10
   261     000F  0804               	movf	4,w
   262     0010  0A84               	incf	4,f
   263     0011  0782               	addwf	2,f
   264     0012                     __stringbase:
   265     0012  3400               	retlw	0
   266     0013                     __end_of__stringtab:
   267     0013                     _dpowers:
   268     0013  3401               	retlw	1
   269     0014  3400               	retlw	0
   270     0015  340A               	retlw	10
   271     0016  3400               	retlw	0
   272     0017  3464               	retlw	100
   273     0018  3400               	retlw	0
   274     0019  34E8               	retlw	232
   275     001A  3403               	retlw	3
   276     001B  3410               	retlw	16
   277     001C  3427               	retlw	39
   278     001D                     __end_of_dpowers:
   279     0010                     _T1CONbits	set	16
   280     000E                     _TMR1L	set	14
   281     000F                     _TMR1H	set	15
   282     0010                     _T1CON	set	16
   283     0034                     _RB4	set	52
   284     0035                     _RB5	set	53
   285     0048                     _RE0	set	72
   286     0049                     _RE1	set	73
   287     0047                     _RD7	set	71
   288     0046                     _RD6	set	70
   289     0045                     _RD5	set	69
   290     0044                     _RD4	set	68
   291     0086                     _TRISB	set	134
   292     009F                     _ADCON1	set	159
   293     0089                     _TRISE	set	137
   294     0088                     _TRISD	set	136
   295     001D                     STR_4:
   296     001D  344F               	retlw	79	;'O'
   297     001E  3475               	retlw	117	;'u'
   298     001F  3474               	retlw	116	;'t'
   299     0020  3420               	retlw	32	;' '
   300     0021  346F               	retlw	111	;'o'
   301     0022  3466               	retlw	102	;'f'
   302     0023  3420               	retlw	32	;' '
   303     0024  3452               	retlw	82	;'R'
   304     0025  3461               	retlw	97	;'a'
   305     0026  346E               	retlw	110	;'n'
   306     0027  3467               	retlw	103	;'g'
   307     0028  3465               	retlw	101	;'e'
   308     0029  3400               	retlw	0
   309     002A                     STR_2:
   310     002A  3444               	retlw	68	;'D'
   311     002B  3469               	retlw	105	;'i'
   312     002C  3473               	retlw	115	;'s'
   313     002D  3474               	retlw	116	;'t'
   314     002E  3461               	retlw	97	;'a'
   315     002F  346E               	retlw	110	;'n'
   316     0030  3463               	retlw	99	;'c'
   317     0031  3465               	retlw	101	;'e'
   318     0032  3420               	retlw	32	;' '
   319     0033  343D               	retlw	61	;'='
   320     0034  3420               	retlw	32	;' '
   321     0035  3400               	retlw	0
   322     0036                     STR_1:
   323     0036  3425               	retlw	37	;'%'
   324     0037  3430               	retlw	48	;'0'
   325     0038  3433               	retlw	51	;'3'
   326     0039  3464               	retlw	100	;'d'
   327     003A  3400               	retlw	0
   328     003B                     STR_3:
   329     003B  3463               	retlw	99	;'c'
   330     003C  346D               	retlw	109	;'m'
   331     003D  3400               	retlw	0
   332                           
   333                           	psect	cinit
   334     07FC                     start_initialization:	
   335                           ; #config settings
   336                           
   337     07FC                     __initialization:
   338     07FC                     end_of_initialization:	
   339                           ;End of C runtime variable initialization code
   340                           
   341     07FC                     __end_of__initialization:
   342     07FC  0183               	clrf	3
   343     07FD  120A  118A  2B4F   	ljmp	_main	;jump to C main() function
   344                           
   345                           	psect	cstackCOMMON
   346     0070                     __pcstackCOMMON:
   347     0070                     ?_isdigit:
   348     0070                     ??_isdigit:	
   349                           ; 1 bit 
   350                           
   351     0070                     ?_LCD_Out:	
   352                           ; 1 bytes @ 0x0
   353                           
   354     0070                     ??_LCD_Out:	
   355                           ; 1 bytes @ 0x0
   356                           
   357     0070                     ?_LCD_Write:	
   358                           ; 1 bytes @ 0x0
   359                           
   360     0070                     ?_LCD_Init:	
   361                           ; 1 bytes @ 0x0
   362                           
   363     0070                     ?_LCD_putc:	
   364                           ; 1 bytes @ 0x0
   365                           
   366     0070                     ?_main:	
   367                           ; 1 bytes @ 0x0
   368                           
   369     0070                     ?___wmul:	
   370                           ; 1 bytes @ 0x0
   371                           
   372     0070                     ?___lwdiv:	
   373                           ; 2 bytes @ 0x0
   374                           
   375     0070                     ?___xxtofl:	
   376                           ; 2 bytes @ 0x0
   377                           
   378     0070                     LCD_Out@c:	
   379                           ; 4 bytes @ 0x0
   380                           
   381     0070                     _isdigit$599:	
   382                           ; 1 bytes @ 0x0
   383                           
   384     0070                     ___wmul@multiplier:	
   385                           ; 1 bytes @ 0x0
   386                           
   387     0070                     ___lwdiv@divisor:	
   388                           ; 2 bytes @ 0x0
   389                           
   390     0070                     ___xxtofl@val:	
   391                           ; 2 bytes @ 0x0
   392                           
   393                           
   394                           ; 4 bytes @ 0x0
   395     0070                     	ds	1
   396     0071                     ??_LCD_Write:
   397     0071                     ??_LCD_putc:	
   398                           ; 1 bytes @ 0x1
   399                           
   400     0071                     isdigit@c:	
   401                           ; 1 bytes @ 0x1
   402                           
   403                           
   404                           ; 1 bytes @ 0x1
   405     0071                     	ds	1
   406     0072                     LCD_putc@c:
   407     0072                     ___wmul@multiplicand:	
   408                           ; 1 bytes @ 0x2
   409                           
   410     0072                     ___lwdiv@dividend:	
   411                           ; 2 bytes @ 0x2
   412                           
   413                           
   414                           ; 2 bytes @ 0x2
   415     0072                     	ds	1
   416     0073                     ?_LCD_putrs:
   417     0073                     LCD_Write@c:	
   418                           ; 1 bytes @ 0x3
   419                           
   420     0073                     LCD_putrs@a:	
   421                           ; 1 bytes @ 0x3
   422                           
   423                           
   424                           ; 2 bytes @ 0x3
   425     0073                     	ds	1
   426     0074                     ??_LCD_Init:
   427     0074                     ??___wmul:	
   428                           ; 1 bytes @ 0x4
   429                           
   430     0074                     ??___lwdiv:	
   431                           ; 1 bytes @ 0x4
   432                           
   433     0074                     ??___xxtofl:	
   434                           ; 1 bytes @ 0x4
   435                           
   436     0074                     ___wmul@product:	
   437                           ; 1 bytes @ 0x4
   438                           
   439                           
   440                           ; 2 bytes @ 0x4
   441     0074                     	ds	1
   442     0075                     ??_LCD_putrs:
   443     0075                     ___lwdiv@quotient:	
   444                           ; 1 bytes @ 0x5
   445                           
   446                           
   447                           ; 2 bytes @ 0x5
   448     0075                     	ds	1
   449     0076                     LCD_Init@cmd:
   450                           
   451                           ; 1 bytes @ 0x6
   452     0076                     	ds	1
   453     0077                     ___lwdiv@counter:
   454                           
   455                           ; 1 bytes @ 0x7
   456     0077                     	ds	1
   457     0078                     ?___lwmod:
   458     0078                     ___xxtofl@sign:	
   459                           ; 2 bytes @ 0x8
   460                           
   461     0078                     LCD_putrs@i:	
   462                           ; 1 bytes @ 0x8
   463                           
   464     0078                     ___lwmod@divisor:	
   465                           ; 2 bytes @ 0x8
   466                           
   467                           
   468                           ; 2 bytes @ 0x8
   469     0078                     	ds	1
   470     0079                     ___xxtofl@exp:
   471                           
   472                           ; 1 bytes @ 0x9
   473     0079                     	ds	1
   474     007A                     ___lwmod@dividend:
   475     007A                     ___xxtofl@arg:	
   476                           ; 2 bytes @ 0xA
   477                           
   478                           
   479                           ; 4 bytes @ 0xA
   480     007A                     	ds	2
   481     007C                     ??___lwmod:
   482                           
   483                           ; 1 bytes @ 0xC
   484     007C                     	ds	1
   485     007D                     ___lwmod@counter:
   486                           
   487                           ; 1 bytes @ 0xD
   488     007D                     	ds	1
   489                           
   490                           	psect	cstackBANK0
   491     0020                     __pcstackBANK0:
   492     0020                     ?_sprintf:
   493     0020                     ?___fldiv:	
   494                           ; 2 bytes @ 0x0
   495                           
   496     0020                     sprintf@f:	
   497                           ; 4 bytes @ 0x0
   498                           
   499     0020                     ___fldiv@a:	
   500                           ; 1 bytes @ 0x0
   501                           
   502                           
   503                           ; 4 bytes @ 0x0
   504     0020                     	ds	3
   505     0023                     ??_sprintf:
   506                           
   507                           ; 1 bytes @ 0x3
   508     0023                     	ds	1
   509     0024                     ___fldiv@b:
   510                           
   511                           ; 4 bytes @ 0x4
   512     0024                     	ds	2
   513     0026                     sprintf@ap:
   514                           
   515                           ; 1 bytes @ 0x6
   516     0026                     	ds	1
   517     0027                     sprintf@prec:
   518                           
   519                           ; 1 bytes @ 0x7
   520     0027                     	ds	1
   521     0028                     ??___fldiv:
   522     0028                     sprintf@val:	
   523                           ; 1 bytes @ 0x8
   524                           
   525                           
   526                           ; 2 bytes @ 0x8
   527     0028                     	ds	2
   528     002A                     sprintf@flag:
   529                           
   530                           ; 1 bytes @ 0xA
   531     002A                     	ds	1
   532     002B                     sprintf@width:
   533                           
   534                           ; 2 bytes @ 0xB
   535     002B                     	ds	2
   536     002D                     sprintf@sp:
   537     002D                     ___fldiv@rem:	
   538                           ; 1 bytes @ 0xD
   539                           
   540                           
   541                           ; 4 bytes @ 0xD
   542     002D                     	ds	1
   543     002E                     sprintf@c:
   544                           
   545                           ; 1 bytes @ 0xE
   546     002E                     	ds	3
   547     0031                     ___fldiv@sign:
   548                           
   549                           ; 1 bytes @ 0x11
   550     0031                     	ds	1
   551     0032                     ___fldiv@new_exp:
   552                           
   553                           ; 2 bytes @ 0x12
   554     0032                     	ds	2
   555     0034                     ___fldiv@grs:
   556                           
   557                           ; 4 bytes @ 0x14
   558     0034                     	ds	4
   559     0038                     ___fldiv@bexp:
   560                           
   561                           ; 1 bytes @ 0x18
   562     0038                     	ds	1
   563     0039                     ___fldiv@aexp:
   564                           
   565                           ; 1 bytes @ 0x19
   566     0039                     	ds	1
   567     003A                     ?___fltol:
   568     003A                     ___fltol@f1:	
   569                           ; 4 bytes @ 0x1A
   570                           
   571                           
   572                           ; 4 bytes @ 0x1A
   573     003A                     	ds	4
   574     003E                     ??___fltol:
   575                           
   576                           ; 1 bytes @ 0x1E
   577     003E                     	ds	4
   578     0042                     ___fltol@sign1:
   579                           
   580                           ; 1 bytes @ 0x22
   581     0042                     	ds	1
   582     0043                     ___fltol@exp1:
   583                           
   584                           ; 1 bytes @ 0x23
   585     0043                     	ds	1
   586     0044                     ??_main:
   587                           
   588                           ; 1 bytes @ 0x24
   589     0044                     	ds	3
   590     0047                     main@txt:
   591                           
   592                           ; 4 bytes @ 0x27
   593     0047                     	ds	4
   594     004B                     main@a:
   595                           
   596                           ; 2 bytes @ 0x2B
   597     004B                     	ds	2
   598                           
   599                           	psect	maintext
   600     034F                     __pmaintext:	
   601 ;;
   602 ;;Main: autosize = 0, tempsize = 3, incstack = 0, save=0
   603 ;;
   604 ;; *************** function _main *****************
   605 ;; Defined at:
   606 ;;		line 22 in file "main.c"
   607 ;; Parameters:    Size  Location     Type
   608 ;;		None
   609 ;; Auto vars:     Size  Location     Type
   610 ;;  txt             4   39[BANK0 ] unsigned char [4]
   611 ;;  a               2   43[BANK0 ] int 
   612 ;; Return value:  Size  Location     Type
   613 ;;                  1    wreg      void 
   614 ;; Registers used:
   615 ;;		wreg, fsr0l, fsr0h, status,2, status,0, btemp+1, pclath, cstack
   616 ;; Tracked objects:
   617 ;;		On entry : B00/0
   618 ;;		On exit  : 0/0
   619 ;;		Unchanged: 0/0
   620 ;; Data sizes:     COMMON   BANK0   BANK1   BANK3   BANK2
   621 ;;      Params:         0       0       0       0       0
   622 ;;      Locals:         0       6       0       0       0
   623 ;;      Temps:          0       3       0       0       0
   624 ;;      Totals:         0       9       0       0       0
   625 ;;Total ram usage:        9 bytes
   626 ;; Hardware stack levels required when called: 3
   627 ;; This function calls:
   628 ;;		_LCD_Init
   629 ;;		_LCD_Write
   630 ;;		_LCD_putrs
   631 ;;		___fldiv
   632 ;;		___fltol
   633 ;;		___xxtofl
   634 ;;		_sprintf
   635 ;; This function is called by:
   636 ;;		Startup code after reset
   637 ;; This function uses a non-reentrant model
   638 ;;
   639                           
   640     034F                     _main:	
   641                           ;psect for function _main
   642                           
   643     034F                     l1941:	
   644                           ;incstack = 0
   645                           ; Regs used in _main: [wreg-fsr0h+status,2+status,0+btemp+1+pclath+cstack]
   646                           
   647                           
   648                           ;main.c: 24:     TRISD = 0x00;
   649     034F  1683               	bsf	3,5	;RP0=1, select bank1
   650     0350  1303               	bcf	3,6	;RP1=0, select bank1
   651     0351  0188               	clrf	8	;volatile
   652                           
   653                           ;main.c: 25:     TRISE = 0x00;
   654     0352  0189               	clrf	9	;volatile
   655     0353                     l1943:
   656                           
   657                           ;main.c: 26:     ADCON1 = 0x4E;
   658     0353  304E               	movlw	78
   659     0354  009F               	movwf	31	;volatile
   660     0355                     l1945:
   661                           
   662                           ;main.c: 27:     LCD_Init();
   663     0355  120A  118A  21AE  120A  118A  	fcall	_LCD_Init
   664     035A                     l1947:
   665                           
   666                           ;main.c: 30:     TRISB = 0b00010000;
   667     035A  3010               	movlw	16
   668     035B  1683               	bsf	3,5	;RP0=1, select bank1
   669     035C  1303               	bcf	3,6	;RP1=0, select bank1
   670     035D  0086               	movwf	6	;volatile
   671     035E                     l1949:
   672                           
   673                           ;main.c: 31:     T1CON = 0x10;
   674     035E  3010               	movlw	16
   675     035F  1283               	bcf	3,5	;RP0=0, select bank0
   676     0360  1303               	bcf	3,6	;RP1=0, select bank0
   677     0361  0090               	movwf	16	;volatile
   678     0362                     l1951:
   679                           
   680                           ;main.c: 36:     {;main.c: 37:         TMR1H = 0;
   681     0362  1283               	bcf	3,5	;RP0=0, select bank0
   682     0363  1303               	bcf	3,6	;RP1=0, select bank0
   683     0364  018F               	clrf	15	;volatile
   684     0365                     l1953:
   685                           
   686                           ;main.c: 38:         TMR1L = 0;
   687     0365  018E               	clrf	14	;volatile
   688     0366                     l1955:
   689                           
   690                           ;main.c: 40:         RB5 = 1;
   691     0366  1686               	bsf	6,5	;volatile
   692     0367                     l1957:
   693                           
   694                           ;main.c: 41:         _delay((unsigned long)((10)*(10000000/4000000.0)));
   695     0367  3007               	movlw	7
   696     0368  1283               	bcf	3,5	;RP0=0, select bank0
   697     0369  1303               	bcf	3,6	;RP1=0, select bank0
   698     036A  00C4               	movwf	??_main
   699     036B                     u2097:
   700     036B  0BC4               	decfsz	??_main,f
   701     036C  2B6B               	goto	u2097
   702     036D  0000               	nop
   703     036E                     l1959:
   704                           
   705                           ;main.c: 42:         RB5 = 0;
   706     036E  1283               	bcf	3,5	;RP0=0, select bank0
   707     036F  1303               	bcf	3,6	;RP1=0, select bank0
   708     0370  1286               	bcf	6,5	;volatile
   709     0371                     l95:	
   710                           ;main.c: 44:         while(!RB4);
   711                           
   712     0371  1E06               	btfss	6,4	;volatile
   713     0372  2B74               	goto	u2051
   714     0373  2B75               	goto	u2050
   715     0374                     u2051:
   716     0374  2B71               	goto	l95
   717     0375                     u2050:
   718     0375                     l97:
   719                           
   720                           ;main.c: 45:         T1CONbits.TMR1ON = 1;
   721     0375  1410               	bsf	16,0	;volatile
   722     0376                     l98:	
   723                           ;main.c: 46:         while(RB4);
   724                           
   725     0376  1A06               	btfsc	6,4	;volatile
   726     0377  2B79               	goto	u2061
   727     0378  2B7A               	goto	u2060
   728     0379                     u2061:
   729     0379  2B76               	goto	l98
   730     037A                     u2060:
   731     037A                     l100:
   732                           
   733                           ;main.c: 47:         T1CONbits.TMR1ON = 0;
   734     037A  1010               	bcf	16,0	;volatile
   735     037B                     l1961:
   736                           
   737                           ;main.c: 49:         a = (TMR1L | (TMR1H<<8));
   738     037B  080F               	movf	15,w	;volatile
   739     037C  00CC               	movwf	main@a+1
   740     037D  080E               	movf	14,w	;volatile
   741     037E  00CB               	movwf	main@a
   742     037F                     l1963:
   743                           
   744                           ;main.c: 50:         a = a/58.82;
   745     037F  084B               	movf	main@a,w
   746     0380  00F0               	movwf	___xxtofl@val
   747     0381  084C               	movf	main@a+1,w
   748     0382  00F1               	movwf	___xxtofl@val+1
   749     0383  3000               	movlw	0
   750     0384  1BF1               	btfsc	___xxtofl@val+1,7
   751     0385  30FF               	movlw	255
   752     0386  00F2               	movwf	___xxtofl@val+2
   753     0387  00F3               	movwf	___xxtofl@val+3
   754     0388  3001               	movlw	1
   755     0389  120A  118A  2297  120A  118A  	fcall	___xxtofl
   756     038E  0873               	movf	?___xxtofl+3,w
   757     038F  1283               	bcf	3,5	;RP0=0, select bank0
   758     0390  1303               	bcf	3,6	;RP1=0, select bank0
   759     0391  00A7               	movwf	___fldiv@b+3
   760     0392  0872               	movf	?___xxtofl+2,w
   761     0393  00A6               	movwf	___fldiv@b+2
   762     0394  0871               	movf	?___xxtofl+1,w
   763     0395  00A5               	movwf	___fldiv@b+1
   764     0396  0870               	movf	?___xxtofl,w
   765     0397  00A4               	movwf	___fldiv@b
   766     0398  3042               	movlw	66
   767     0399  00A3               	movwf	___fldiv@a+3
   768     039A  306B               	movlw	107
   769     039B  00A2               	movwf	___fldiv@a+2
   770     039C  3047               	movlw	71
   771     039D  00A1               	movwf	___fldiv@a+1
   772     039E  30AE               	movlw	174
   773     039F  00A0               	movwf	___fldiv@a
   774     03A0  120A  118A  2629  120A  118A  	fcall	___fldiv
   775     03A5  1283               	bcf	3,5	;RP0=0, select bank0
   776     03A6  1303               	bcf	3,6	;RP1=0, select bank0
   777     03A7  0823               	movf	?___fldiv+3,w
   778     03A8  00BD               	movwf	___fltol@f1+3
   779     03A9  0822               	movf	?___fldiv+2,w
   780     03AA  00BC               	movwf	___fltol@f1+2
   781     03AB  0821               	movf	?___fldiv+1,w
   782     03AC  00BB               	movwf	___fltol@f1+1
   783     03AD  0820               	movf	?___fldiv,w
   784     03AE  00BA               	movwf	___fltol@f1
   785     03AF  120A  118A  221F  120A  118A  	fcall	___fltol
   786     03B4  1283               	bcf	3,5	;RP0=0, select bank0
   787     03B5  1303               	bcf	3,6	;RP1=0, select bank0
   788     03B6  083B               	movf	?___fltol+1,w
   789     03B7  00CC               	movwf	main@a+1
   790     03B8  083A               	movf	?___fltol,w
   791     03B9  00CB               	movwf	main@a
   792     03BA                     l1965:
   793                           
   794                           ;main.c: 51:         a = a + 1;
   795     03BA  084B               	movf	main@a,w
   796     03BB  3E01               	addlw	1
   797     03BC  00CB               	movwf	main@a
   798     03BD  084C               	movf	main@a+1,w
   799     03BE  1803               	skipnc
   800     03BF  3E01               	addlw	1
   801     03C0  3E00               	addlw	0
   802     03C1  00CC               	movwf	main@a+1
   803     03C2                     l1967:
   804                           
   805                           ;main.c: 52:         if(a>=2 && a<=400)
   806     03C2  084C               	movf	main@a+1,w
   807     03C3  3A80               	xorlw	128
   808     03C4  00FF               	movwf	btemp+1
   809     03C5  3080               	movlw	128
   810     03C6  027F               	subwf	btemp+1,w
   811     03C7  1D03               	skipz
   812     03C8  2BCB               	goto	u2075
   813     03C9  3002               	movlw	2
   814     03CA  024B               	subwf	main@a,w
   815     03CB                     u2075:
   816     03CB  1C03               	skipc
   817     03CC  2BCE               	goto	u2071
   818     03CD  2BCF               	goto	u2070
   819     03CE                     u2071:
   820     03CE  2C38               	goto	l2007
   821     03CF                     u2070:
   822     03CF                     l1969:
   823     03CF  1283               	bcf	3,5	;RP0=0, select bank0
   824     03D0  1303               	bcf	3,6	;RP1=0, select bank0
   825     03D1  084C               	movf	main@a+1,w
   826     03D2  3A80               	xorlw	128
   827     03D3  00FF               	movwf	btemp+1
   828     03D4  3081               	movlw	129
   829     03D5  027F               	subwf	btemp+1,w
   830     03D6  1D03               	skipz
   831     03D7  2BDA               	goto	u2085
   832     03D8  3091               	movlw	145
   833     03D9  024B               	subwf	main@a,w
   834     03DA                     u2085:
   835     03DA  1803               	skipnc
   836     03DB  2BDD               	goto	u2081
   837     03DC  2BDE               	goto	u2080
   838     03DD                     u2081:
   839     03DD  2C38               	goto	l2007
   840     03DE                     u2080:
   841     03DE                     l1971:
   842                           
   843                           ;main.c: 53:         {;main.c: 54:             sprintf(txt, "%03d", a);
   844     03DE  3024               	movlw	(low ((STR_1-__stringbase)| (0+32768)))& (0+255)
   845     03DF  1283               	bcf	3,5	;RP0=0, select bank0
   846     03E0  1303               	bcf	3,6	;RP1=0, select bank0
   847     03E1  00A0               	movwf	sprintf@f
   848     03E2  084C               	movf	main@a+1,w
   849     03E3  00A2               	movwf	?_sprintf+2
   850     03E4  084B               	movf	main@a,w
   851     03E5  00A1               	movwf	?_sprintf+1
   852     03E6  3047               	movlw	(low (main@txt| 0))& (0+255)
   853     03E7  120A  118A  246B  120A  118A  	fcall	_sprintf
   854     03EC                     l1973:
   855     03EC  3000               	movlw	0
   856     03ED  120A  118A  205E  120A  118A  	fcall	_LCD_Write
   857     03F2                     l1975:
   858     03F2  3001               	movlw	1
   859     03F3  120A  118A  205E  120A  118A  	fcall	_LCD_Write
   860     03F8                     l1979:
   861     03F8  300C               	movlw	12
   862     03F9  120A  118A  205E  120A  118A  	fcall	_LCD_Write
   863     03FE  3000               	movlw	0
   864     03FF  120A  118A  205E  120A  118A  	fcall	_LCD_Write
   865     0404                     l1985:
   866                           
   867                           ;main.c: 57:             LCD_putrs("Distance = ");
   868     0404  3018               	movlw	(low ((STR_2-__stringbase)| (0+32768)))& (0+255)
   869     0405  00F3               	movwf	LCD_putrs@a
   870     0406  3080               	movlw	128
   871     0407  00F4               	movwf	LCD_putrs@a+1
   872     0408  120A  118A  2128  120A  118A  	fcall	_LCD_putrs
   873     040D                     l1989:
   874     040D  300C               	movlw	12
   875     040E  120A  118A  205E  120A  118A  	fcall	_LCD_Write
   876     0413  300B               	movlw	11
   877     0414  120A  118A  205E  120A  118A  	fcall	_LCD_Write
   878     0419                     l1995:
   879                           
   880                           ;main.c: 59:             LCD_putrs(txt);
   881     0419  3047               	movlw	(low (main@txt| 0))& (0+255)
   882     041A  00F3               	movwf	LCD_putrs@a
   883     041B  3000               	movlw	0
   884     041C  00F4               	movwf	LCD_putrs@a+1
   885     041D  120A  118A  2128  120A  118A  	fcall	_LCD_putrs
   886     0422                     l1999:
   887     0422  300C               	movlw	12
   888     0423  120A  118A  205E  120A  118A  	fcall	_LCD_Write
   889     0428  300E               	movlw	14
   890     0429  120A  118A  205E  120A  118A  	fcall	_LCD_Write
   891     042E                     l2005:
   892                           
   893                           ;main.c: 61:             LCD_putrs("cm");
   894     042E  3029               	movlw	(low ((STR_3-__stringbase)| (0+32768)))& (0+255)
   895     042F  00F3               	movwf	LCD_putrs@a
   896     0430  3080               	movlw	128
   897     0431  00F4               	movwf	LCD_putrs@a+1
   898     0432  120A  118A  2128  120A  118A  	fcall	_LCD_putrs
   899                           
   900                           ;main.c: 62:         }
   901     0437  2C59               	goto	l2019
   902     0438                     l2007:
   903     0438  3000               	movlw	0
   904     0439  120A  118A  205E  120A  118A  	fcall	_LCD_Write
   905     043E  3001               	movlw	1
   906     043F  120A  118A  205E  120A  118A  	fcall	_LCD_Write
   907     0444                     l2011:
   908     0444  300C               	movlw	12
   909     0445  120A  118A  205E  120A  118A  	fcall	_LCD_Write
   910     044A  3001               	movlw	1
   911     044B  120A  118A  205E  120A  118A  	fcall	_LCD_Write
   912     0450                     l2017:
   913                           
   914                           ;main.c: 67:             LCD_putrs("Out of Range");
   915     0450  300B               	movlw	(low ((STR_4-__stringbase)| (0+32768)))& (0+255)
   916     0451  00F3               	movwf	LCD_putrs@a
   917     0452  3080               	movlw	128
   918     0453  00F4               	movwf	LCD_putrs@a+1
   919     0454  120A  118A  2128  120A  118A  	fcall	_LCD_putrs
   920     0459                     l2019:
   921                           
   922                           ;main.c: 69:         _delay((unsigned long)((400)*(10000000/4000.0)));
   923     0459  3006               	movlw	6
   924     045A  1283               	bcf	3,5	;RP0=0, select bank0
   925     045B  1303               	bcf	3,6	;RP1=0, select bank0
   926     045C  00C6               	movwf	??_main+2
   927     045D  3013               	movlw	19
   928     045E  00C5               	movwf	??_main+1
   929     045F  30AD               	movlw	173
   930     0460  00C4               	movwf	??_main
   931     0461                     u2107:
   932     0461  0BC4               	decfsz	??_main,f
   933     0462  2C61               	goto	u2107
   934     0463  0BC5               	decfsz	??_main+1,f
   935     0464  2C61               	goto	u2107
   936     0465  0BC6               	decfsz	??_main+2,f
   937     0466  2C61               	goto	u2107
   938     0467  2B62               	goto	l1951
   939     0468  120A  118A  2800   	ljmp	start
   940     046B                     __end_of_main:
   941                           
   942                           	psect	text1
   943     046B                     __ptext1:	
   944 ;; *************** function _sprintf *****************
   945 ;; Defined at:
   946 ;;		line 505 in file "C:\Program Files\Microchip\xc8\v2.40\pic\sources\c90\common\doprnt.c"
   947 ;; Parameters:    Size  Location     Type
   948 ;;  sp              1    wreg     PTR unsigned char 
   949 ;;		 -> main@txt(4), 
   950 ;;  f               1    0[BANK0 ] PTR const unsigned char 
   951 ;;		 -> STR_1(5), 
   952 ;; Auto vars:     Size  Location     Type
   953 ;;  sp              1   13[BANK0 ] PTR unsigned char 
   954 ;;		 -> main@txt(4), 
   955 ;;  tmpval          4    0        struct .
   956 ;;  width           2   11[BANK0 ] int 
   957 ;;  val             2    8[BANK0 ] unsigned int 
   958 ;;  cp              2    0        PTR const unsigned char 
   959 ;;  len             2    0        unsigned int 
   960 ;;  c               1   14[BANK0 ] unsigned char 
   961 ;;  flag            1   10[BANK0 ] unsigned char 
   962 ;;  prec            1    7[BANK0 ] char 
   963 ;;  ap              1    6[BANK0 ] PTR void [1]
   964 ;;		 -> ?_sprintf(2), 
   965 ;; Return value:  Size  Location     Type
   966 ;;                  2    0[BANK0 ] int 
   967 ;; Registers used:
   968 ;;		wreg, fsr0l, fsr0h, status,2, status,0, btemp+1, pclath, cstack
   969 ;; Tracked objects:
   970 ;;		On entry : 0/0
   971 ;;		On exit  : 0/0
   972 ;;		Unchanged: 0/0
   973 ;; Data sizes:     COMMON   BANK0   BANK1   BANK3   BANK2
   974 ;;      Params:         0       3       0       0       0
   975 ;;      Locals:         0       9       0       0       0
   976 ;;      Temps:          0       3       0       0       0
   977 ;;      Totals:         0      15       0       0       0
   978 ;;Total ram usage:       15 bytes
   979 ;; Hardware stack levels used: 1
   980 ;; Hardware stack levels required when called: 1
   981 ;; This function calls:
   982 ;;		___lwdiv
   983 ;;		___lwmod
   984 ;;		___wmul
   985 ;;		_isdigit
   986 ;; This function is called by:
   987 ;;		_main
   988 ;; This function uses a non-reentrant model
   989 ;;
   990                           
   991     046B                     _sprintf:	
   992                           ;psect for function _sprintf
   993                           
   994                           
   995                           ;incstack = 0
   996                           ; Regs used in _sprintf: [wreg-fsr0h+status,2+status,0+btemp+1+pclath+cstack]
   997                           ;sprintf@sp stored from wreg
   998     046B  1283               	bcf	3,5	;RP0=0, select bank0
   999     046C  1303               	bcf	3,6	;RP1=0, select bank0
  1000     046D  00AD               	movwf	sprintf@sp
  1001     046E                     l1593:
  1002                           
  1003                           ;C:\Program Files\Microchip\xc8\v2.40\pic\sources\c90\common\doprnt.c: 505: sprintf(char
      +                           * sp, const char * f, ...);C:\Program Files\Microchip\xc8\v2.40\pic\sources\c90\common\
      +                          doprnt.c: 506: {;C:\Program Files\Microchip\xc8\v2.40\pic\sources\c90\common\doprnt.c: 5
      +                          07:  va_list ap;;C:\Program Files\Microchip\xc8\v2.40\pic\sources\c90\common\doprnt.c: 5
      +                          12:  char c;;C:\Program Files\Microchip\xc8\v2.40\pic\sources\c90\common\doprnt.c: 514: 
      +                           int width;;C:\Program Files\Microchip\xc8\v2.40\pic\sources\c90\common\doprnt.c: 521:  
      +                          signed char prec;
  1004     046E  3021               	movlw	(low ((?_sprintf| 0+1)))& (0+255)
  1005     046F  00A6               	movwf	sprintf@ap
  1006                           
  1007                           ;C:\Program Files\Microchip\xc8\v2.40\pic\sources\c90\common\doprnt.c: 553:  while((c = 
      +                          *f++)) {
  1008     0470  2E14               	goto	l1697
  1009     0471                     l1595:
  1010                           
  1011                           ;C:\Program Files\Microchip\xc8\v2.40\pic\sources\c90\common\doprnt.c: 555:   if(c != '%
      +                          ')
  1012     0471  3025               	movlw	37
  1013     0472  062E               	xorwf	sprintf@c,w
  1014     0473  1903               	btfsc	3,2
  1015     0474  2C76               	goto	u1331
  1016     0475  2C77               	goto	u1330
  1017     0476                     u1331:
  1018     0476  2C81               	goto	l1601
  1019     0477                     u1330:
  1020     0477                     l1597:
  1021                           
  1022                           ;C:\Program Files\Microchip\xc8\v2.40\pic\sources\c90\common\doprnt.c: 557:   {;C:\Progr
      +                          am Files\Microchip\xc8\v2.40\pic\sources\c90\common\doprnt.c: 558:    ((*sp++ = (c)));
  1023     0477  082D               	movf	sprintf@sp,w
  1024     0478  0084               	movwf	4
  1025     0479  082E               	movf	sprintf@c,w
  1026     047A  1383               	bcf	3,7	;select IRP bank0
  1027     047B  0080               	movwf	0
  1028     047C                     l1599:
  1029     047C  3001               	movlw	1
  1030     047D  00A3               	movwf	??_sprintf
  1031     047E  0823               	movf	??_sprintf,w
  1032     047F  07AD               	addwf	sprintf@sp,f
  1033                           
  1034                           ;C:\Program Files\Microchip\xc8\v2.40\pic\sources\c90\common\doprnt.c: 559:    continue;
  1035     0480  2E14               	goto	l1697
  1036     0481                     l1601:
  1037                           
  1038                           ;C:\Program Files\Microchip\xc8\v2.40\pic\sources\c90\common\doprnt.c: 563:   width = 0;
  1039     0481  01AB               	clrf	sprintf@width
  1040     0482  01AC               	clrf	sprintf@width+1
  1041                           
  1042                           ;C:\Program Files\Microchip\xc8\v2.40\pic\sources\c90\common\doprnt.c: 565:   flag = 0;
  1043     0483  01AA               	clrf	sprintf@flag
  1044     0484  2C8A               	goto	l1607
  1045     0485                     l275:	
  1046                           ;C:\Program Files\Microchip\xc8\v2.40\pic\sources\c90\common\doprnt.c: 596:    case '0':
  1047                           
  1048                           
  1049                           ;C:\Program Files\Microchip\xc8\v2.40\pic\sources\c90\common\doprnt.c: 597:     flag |= 
      +                          0x04;
  1050     0485  152A               	bsf	sprintf@flag,2
  1051     0486                     l1603:
  1052                           
  1053                           ;C:\Program Files\Microchip\xc8\v2.40\pic\sources\c90\common\doprnt.c: 598:     f++;
  1054     0486  3001               	movlw	1
  1055     0487  00A3               	movwf	??_sprintf
  1056     0488  0823               	movf	??_sprintf,w
  1057     0489  07A0               	addwf	sprintf@f,f
  1058     048A                     l1607:	
  1059                           ;C:\Program Files\Microchip\xc8\v2.40\pic\sources\c90\common\doprnt.c: 599:     continue
      +                          ;
  1060                           
  1061     048A  0820               	movf	sprintf@f,w
  1062     048B  0084               	movwf	4
  1063     048C  120A  118A  200D  120A  118A  	fcall	stringdir
  1064     0491  00A3               	movwf	??_sprintf
  1065     0492  01A4               	clrf	??_sprintf+1
  1066                           
  1067                           ; Switch on 2 bytes has been partitioned into a top level switch of size 1, and 1 sub-sw
      +                          itches
  1068                           ; Switch size 1, requested type "simple"
  1069                           ; Number of cases is 1, Range of values is 0 to 0
  1070                           ; switch strategies available:
  1071                           ; Name         Instructions Cycles
  1072                           ; simple_byte            4     3 (average)
  1073                           ; direct_byte           11     8 (fixed)
  1074                           ; jumptable            260     6 (fixed)
  1075                           ;	Chosen strategy is simple_byte
  1076     0493  0824               	movf	??_sprintf+1,w
  1077     0494  3A00               	xorlw	0	; case 0
  1078     0495  1903               	skipnz
  1079     0496  2C98               	goto	l2061
  1080     0497  2C9D               	goto	l1609
  1081     0498                     l2061:
  1082                           
  1083                           ; Switch size 1, requested type "simple"
  1084                           ; Number of cases is 1, Range of values is 48 to 48
  1085                           ; switch strategies available:
  1086                           ; Name         Instructions Cycles
  1087                           ; simple_byte            4     3 (average)
  1088                           ; direct_byte           14    11 (fixed)
  1089                           ; jumptable            263     9 (fixed)
  1090                           ;	Chosen strategy is simple_byte
  1091     0498  0823               	movf	??_sprintf,w
  1092     0499  3A30               	xorlw	48	; case 48
  1093     049A  1903               	skipnz
  1094     049B  2C85               	goto	l275
  1095     049C  2C9D               	goto	l1609
  1096     049D                     l1609:
  1097                           
  1098                           ;C:\Program Files\Microchip\xc8\v2.40\pic\sources\c90\common\doprnt.c: 614:   if(isdigit
      +                          ((unsigned)*f)) {
  1099     049D  0820               	movf	sprintf@f,w
  1100     049E  0084               	movwf	4
  1101     049F  120A  118A  200D  120A  118A  	fcall	stringdir
  1102     04A4  120A  118A  204C  120A  118A  	fcall	_isdigit
  1103     04A9  1C03               	btfss	3,0
  1104     04AA  2CAC               	goto	u1341
  1105     04AB  2CAD               	goto	u1340
  1106     04AC                     u1341:
  1107     04AC  2CED               	goto	l1623
  1108     04AD                     u1340:
  1109     04AD                     l1611:
  1110                           
  1111                           ;C:\Program Files\Microchip\xc8\v2.40\pic\sources\c90\common\doprnt.c: 615:    width = 0
      +                          ;
  1112     04AD  1283               	bcf	3,5	;RP0=0, select bank0
  1113     04AE  1303               	bcf	3,6	;RP1=0, select bank0
  1114     04AF  01AB               	clrf	sprintf@width
  1115     04B0  01AC               	clrf	sprintf@width+1
  1116     04B1                     l1613:
  1117                           
  1118                           ;C:\Program Files\Microchip\xc8\v2.40\pic\sources\c90\common\doprnt.c: 617:     width *=
      +                           10;
  1119     04B1  300A               	movlw	10
  1120     04B2  00F0               	movwf	___wmul@multiplier
  1121     04B3  3000               	movlw	0
  1122     04B4  00F1               	movwf	___wmul@multiplier+1
  1123     04B5  1283               	bcf	3,5	;RP0=0, select bank0
  1124     04B6  1303               	bcf	3,6	;RP1=0, select bank0
  1125     04B7  082C               	movf	sprintf@width+1,w
  1126     04B8  00F3               	movwf	___wmul@multiplicand+1
  1127     04B9  082B               	movf	sprintf@width,w
  1128     04BA  00F2               	movwf	___wmul@multiplicand
  1129     04BB  120A  118A  209A  120A  118A  	fcall	___wmul
  1130     04C0  0871               	movf	?___wmul+1,w
  1131     04C1  1283               	bcf	3,5	;RP0=0, select bank0
  1132     04C2  1303               	bcf	3,6	;RP1=0, select bank0
  1133     04C3  00AC               	movwf	sprintf@width+1
  1134     04C4  0870               	movf	?___wmul,w
  1135     04C5  00AB               	movwf	sprintf@width
  1136     04C6                     l1615:
  1137                           
  1138                           ;C:\Program Files\Microchip\xc8\v2.40\pic\sources\c90\common\doprnt.c: 618:        width
      +                           += *f++ - '0';
  1139     04C6  0820               	movf	sprintf@f,w
  1140     04C7  0084               	movwf	4
  1141     04C8  120A  118A  200D  120A  118A  	fcall	stringdir
  1142     04CD  3ED0               	addlw	208
  1143     04CE  00A3               	movwf	??_sprintf
  1144     04CF  30FF               	movlw	255
  1145     04D0  1803               	skipnc
  1146     04D1  3000               	movlw	0
  1147     04D2  00A4               	movwf	??_sprintf+1
  1148     04D3  0823               	movf	??_sprintf,w
  1149     04D4  07AB               	addwf	sprintf@width,f
  1150     04D5  1803               	skipnc
  1151     04D6  0AAC               	incf	sprintf@width+1,f
  1152     04D7  0824               	movf	??_sprintf+1,w
  1153     04D8  07AC               	addwf	sprintf@width+1,f
  1154     04D9                     l1617:
  1155     04D9  3001               	movlw	1
  1156     04DA  00A3               	movwf	??_sprintf
  1157     04DB  0823               	movf	??_sprintf,w
  1158     04DC  07A0               	addwf	sprintf@f,f
  1159     04DD                     l1619:
  1160                           
  1161                           ;C:\Program Files\Microchip\xc8\v2.40\pic\sources\c90\common\doprnt.c: 619:    } while(i
      +                          sdigit((unsigned)*f));
  1162     04DD  0820               	movf	sprintf@f,w
  1163     04DE  0084               	movwf	4
  1164     04DF  120A  118A  200D  120A  118A  	fcall	stringdir
  1165     04E4  120A  118A  204C  120A  118A  	fcall	_isdigit
  1166     04E9  1803               	btfsc	3,0
  1167     04EA  2CEC               	goto	u1351
  1168     04EB  2CED               	goto	u1350
  1169     04EC                     u1351:
  1170     04EC  2CB1               	goto	l1613
  1171     04ED                     u1350:
  1172     04ED                     l1623:
  1173     04ED  3001               	movlw	1
  1174     04EE  1283               	bcf	3,5	;RP0=0, select bank0
  1175     04EF  1303               	bcf	3,6	;RP1=0, select bank0
  1176     04F0  07A0               	addwf	sprintf@f,f
  1177     04F1  30FF               	movlw	-1
  1178     04F2  0720               	addwf	sprintf@f,w
  1179     04F3  0084               	movwf	4
  1180     04F4  120A  118A  200D  120A  118A  	fcall	stringdir
  1181     04F9  00AE               	movwf	sprintf@c
  1182     04FA  00A3               	movwf	??_sprintf
  1183     04FB  01A4               	clrf	??_sprintf+1
  1184                           
  1185                           ; Switch on 2 bytes has been partitioned into a top level switch of size 1, and 1 sub-sw
      +                          itches
  1186                           ; Switch size 1, requested type "simple"
  1187                           ; Number of cases is 1, Range of values is 0 to 0
  1188                           ; switch strategies available:
  1189                           ; Name         Instructions Cycles
  1190                           ; simple_byte            4     3 (average)
  1191                           ; direct_byte           11     8 (fixed)
  1192                           ; jumptable            260     6 (fixed)
  1193                           ;	Chosen strategy is simple_byte
  1194     04FC  0824               	movf	??_sprintf+1,w
  1195     04FD  3A00               	xorlw	0	; case 0
  1196     04FE  1903               	skipnz
  1197     04FF  2D01               	goto	l2063
  1198     0500  2E14               	goto	l1697
  1199     0501                     l2063:
  1200                           
  1201                           ; Switch size 1, requested type "simple"
  1202                           ; Number of cases is 3, Range of values is 0 to 105
  1203                           ; switch strategies available:
  1204                           ; Name         Instructions Cycles
  1205                           ; simple_byte           10     6 (average)
  1206                           ; jumptable            260     6 (fixed)
  1207                           ;	Chosen strategy is simple_byte
  1208     0501  0823               	movf	??_sprintf,w
  1209     0502  3A00               	xorlw	0	; case 0
  1210     0503  1903               	skipnz
  1211     0504  2E24               	goto	l1699
  1212     0505  3A64               	xorlw	100	; case 100
  1213     0506  1903               	skipnz
  1214     0507  2D0C               	goto	l1625
  1215     0508  3A0D               	xorlw	13	; case 105
  1216     0509  1903               	skipnz
  1217     050A  2D0C               	goto	l1625
  1218     050B  2E14               	goto	l1697
  1219     050C                     l1625:
  1220                           
  1221                           ;C:\Program Files\Microchip\xc8\v2.40\pic\sources\c90\common\doprnt.c: 1279:   {;C:\Prog
      +                          ram Files\Microchip\xc8\v2.40\pic\sources\c90\common\doprnt.c: 1285:     val = (unsigned
      +                           int)(*(int *)__va_arg((*(int **)ap), (int)0));
  1222     050C  0826               	movf	sprintf@ap,w
  1223     050D  0084               	movwf	4
  1224     050E  1383               	bcf	3,7	;select IRP bank0
  1225     050F  0800               	movf	0,w
  1226     0510  00A8               	movwf	sprintf@val
  1227     0511  0A84               	incf	4,f
  1228     0512  0800               	movf	0,w
  1229     0513  00A9               	movwf	sprintf@val+1
  1230     0514                     l1627:
  1231     0514  3002               	movlw	2
  1232     0515  00A3               	movwf	??_sprintf
  1233     0516  0823               	movf	??_sprintf,w
  1234     0517  07A6               	addwf	sprintf@ap,f
  1235     0518                     l1629:
  1236                           
  1237                           ;C:\Program Files\Microchip\xc8\v2.40\pic\sources\c90\common\doprnt.c: 1287:    if((int)
      +                          val < 0) {
  1238     0518  1FA9               	btfss	sprintf@val+1,7
  1239     0519  2D1B               	goto	u1361
  1240     051A  2D1C               	goto	u1360
  1241     051B                     u1361:
  1242     051B  2D25               	goto	l1635
  1243     051C                     u1360:
  1244     051C                     l1631:
  1245                           
  1246                           ;C:\Program Files\Microchip\xc8\v2.40\pic\sources\c90\common\doprnt.c: 1288:     flag |=
      +                           0x03;
  1247     051C  3003               	movlw	3
  1248     051D  00A3               	movwf	??_sprintf
  1249     051E  0823               	movf	??_sprintf,w
  1250     051F  04AA               	iorwf	sprintf@flag,f
  1251     0520                     l1633:
  1252                           
  1253                           ;C:\Program Files\Microchip\xc8\v2.40\pic\sources\c90\common\doprnt.c: 1289:     val = -
      +                          val;
  1254     0520  09A8               	comf	sprintf@val,f
  1255     0521  09A9               	comf	sprintf@val+1,f
  1256     0522  0AA8               	incf	sprintf@val,f
  1257     0523  1903               	skipnz
  1258     0524  0AA9               	incf	sprintf@val+1,f
  1259     0525                     l1635:
  1260                           
  1261                           ;C:\Program Files\Microchip\xc8\v2.40\pic\sources\c90\common\doprnt.c: 1292:   };C:\Prog
      +                          ram Files\Microchip\xc8\v2.40\pic\sources\c90\common\doprnt.c: 1331:    for(c = 1 ; c !=
      +                           sizeof dpowers/sizeof dpowers[0] ; c++)
  1262     0525  01AE               	clrf	sprintf@c
  1263     0526  0AAE               	incf	sprintf@c,f
  1264     0527                     l1641:
  1265                           
  1266                           ;C:\Program Files\Microchip\xc8\v2.40\pic\sources\c90\common\doprnt.c: 1332:     if(val 
      +                          < dpowers[c])
  1267     0527  082E               	movf	sprintf@c,w
  1268     0528  00A3               	movwf	??_sprintf
  1269     0529  0723               	addwf	??_sprintf,w
  1270     052A  3E01               	addlw	low ((_dpowers-__stringbase)| (0+32768))
  1271     052B  0084               	movwf	4
  1272     052C  120A  118A  200D  120A  118A  	fcall	stringdir
  1273     0531  00A4               	movwf	??_sprintf+1
  1274     0532  120A  118A  200D  120A  118A  	fcall	stringdir
  1275     0537  00A5               	movwf	??_sprintf+2
  1276     0538  0825               	movf	??_sprintf+2,w
  1277     0539  0229               	subwf	sprintf@val+1,w
  1278     053A  1D03               	skipz
  1279     053B  2D3E               	goto	u1375
  1280     053C  0824               	movf	??_sprintf+1,w
  1281     053D  0228               	subwf	sprintf@val,w
  1282     053E                     u1375:
  1283     053E  1803               	skipnc
  1284     053F  2D41               	goto	u1371
  1285     0540  2D42               	goto	u1370
  1286     0541                     u1371:
  1287     0541  2D43               	goto	l1645
  1288     0542                     u1370:
  1289     0542  2D4D               	goto	l1647
  1290     0543                     l1645:
  1291     0543  3001               	movlw	1
  1292     0544  00A3               	movwf	??_sprintf
  1293     0545  0823               	movf	??_sprintf,w
  1294     0546  07AE               	addwf	sprintf@c,f
  1295     0547  3005               	movlw	5
  1296     0548  062E               	xorwf	sprintf@c,w
  1297     0549  1D03               	btfss	3,2
  1298     054A  2D4C               	goto	u1381
  1299     054B  2D4D               	goto	u1380
  1300     054C                     u1381:
  1301     054C  2D27               	goto	l1641
  1302     054D                     u1380:
  1303     054D                     l1647:
  1304                           
  1305                           ;C:\Program Files\Microchip\xc8\v2.40\pic\sources\c90\common\doprnt.c: 1371:   if(width 
      +                          && flag & 0x03)
  1306     054D  082B               	movf	sprintf@width,w
  1307     054E  042C               	iorwf	sprintf@width+1,w
  1308     054F  1903               	btfsc	3,2
  1309     0550  2D52               	goto	u1391
  1310     0551  2D53               	goto	u1390
  1311     0552                     u1391:
  1312     0552  2D5F               	goto	l293
  1313     0553                     u1390:
  1314     0553                     l1649:
  1315     0553  082A               	movf	sprintf@flag,w
  1316     0554  3903               	andlw	3
  1317     0555  1903               	btfsc	3,2
  1318     0556  2D58               	goto	u1401
  1319     0557  2D59               	goto	u1400
  1320     0558                     u1401:
  1321     0558  2D5F               	goto	l293
  1322     0559                     u1400:
  1323     0559                     l1651:
  1324                           
  1325                           ;C:\Program Files\Microchip\xc8\v2.40\pic\sources\c90\common\doprnt.c: 1372:    width--;
  1326     0559  30FF               	movlw	255
  1327     055A  07AB               	addwf	sprintf@width,f
  1328     055B  1803               	skipnc
  1329     055C  0AAC               	incf	sprintf@width+1,f
  1330     055D  30FF               	movlw	255
  1331     055E  07AC               	addwf	sprintf@width+1,f
  1332     055F                     l293:
  1333                           
  1334                           ;C:\Program Files\Microchip\xc8\v2.40\pic\sources\c90\common\doprnt.c: 1407:   if(width 
      +                          > c)
  1335     055F  082C               	movf	sprintf@width+1,w
  1336     0560  3A80               	xorlw	128
  1337     0561  3C80               	sublw	128
  1338     0562  1D03               	skipz
  1339     0563  2D66               	goto	u1415
  1340     0564  082B               	movf	sprintf@width,w
  1341     0565  022E               	subwf	sprintf@c,w
  1342     0566                     u1415:
  1343     0566  1803               	skipnc
  1344     0567  2D69               	goto	u1411
  1345     0568  2D6A               	goto	u1410
  1346     0569                     u1411:
  1347     0569  2D76               	goto	l1655
  1348     056A                     u1410:
  1349     056A                     l1653:
  1350                           
  1351                           ;C:\Program Files\Microchip\xc8\v2.40\pic\sources\c90\common\doprnt.c: 1408:    width -=
      +                           c;
  1352     056A  1283               	bcf	3,5	;RP0=0, select bank0
  1353     056B  1303               	bcf	3,6	;RP1=0, select bank0
  1354     056C  082E               	movf	sprintf@c,w
  1355     056D  00A3               	movwf	??_sprintf
  1356     056E  01A4               	clrf	??_sprintf+1
  1357     056F  0823               	movf	??_sprintf,w
  1358     0570  02AB               	subwf	sprintf@width,f
  1359     0571  0824               	movf	??_sprintf+1,w
  1360     0572  1C03               	skipc
  1361     0573  03AC               	decf	sprintf@width+1,f
  1362     0574  02AC               	subwf	sprintf@width+1,f
  1363     0575  2D7A               	goto	l1657
  1364     0576                     l1655:
  1365                           
  1366                           ;C:\Program Files\Microchip\xc8\v2.40\pic\sources\c90\common\doprnt.c: 1410:    width = 
      +                          0;
  1367     0576  1283               	bcf	3,5	;RP0=0, select bank0
  1368     0577  1303               	bcf	3,6	;RP1=0, select bank0
  1369     0578  01AB               	clrf	sprintf@width
  1370     0579  01AC               	clrf	sprintf@width+1
  1371     057A                     l1657:
  1372                           
  1373                           ;C:\Program Files\Microchip\xc8\v2.40\pic\sources\c90\common\doprnt.c: 1413:   if(flag &
      +                           0x04) {
  1374     057A  1D2A               	btfss	sprintf@flag,2
  1375     057B  2D7D               	goto	u1421
  1376     057C  2D7E               	goto	u1420
  1377     057D                     u1421:
  1378     057D  2DA9               	goto	l1673
  1379     057E                     u1420:
  1380     057E                     l1659:
  1381                           
  1382                           ;C:\Program Files\Microchip\xc8\v2.40\pic\sources\c90\common\doprnt.c: 1418:    if(flag 
      +                          & 0x03)
  1383     057E  082A               	movf	sprintf@flag,w
  1384     057F  3903               	andlw	3
  1385     0580  1903               	btfsc	3,2
  1386     0581  2D83               	goto	u1431
  1387     0582  2D84               	goto	u1430
  1388     0583                     u1431:
  1389     0583  2D8D               	goto	l1665
  1390     0584                     u1430:
  1391     0584                     l1661:
  1392                           
  1393                           ;C:\Program Files\Microchip\xc8\v2.40\pic\sources\c90\common\doprnt.c: 1419:     ((*sp++
      +                           = ('-')));
  1394     0584  082D               	movf	sprintf@sp,w
  1395     0585  0084               	movwf	4
  1396     0586  302D               	movlw	45
  1397     0587  1383               	bcf	3,7	;select IRP bank0
  1398     0588  0080               	movwf	0
  1399     0589                     l1663:
  1400     0589  3001               	movlw	1
  1401     058A  00A3               	movwf	??_sprintf
  1402     058B  0823               	movf	??_sprintf,w
  1403     058C  07AD               	addwf	sprintf@sp,f
  1404     058D                     l1665:
  1405                           
  1406                           ;C:\Program Files\Microchip\xc8\v2.40\pic\sources\c90\common\doprnt.c: 1441:    if(width
      +                          )
  1407     058D  082B               	movf	sprintf@width,w
  1408     058E  042C               	iorwf	sprintf@width+1,w
  1409     058F  1903               	btfsc	3,2
  1410     0590  2D92               	goto	u1441
  1411     0591  2D93               	goto	u1440
  1412     0592                     u1441:
  1413     0592  2DD3               	goto	l1687
  1414     0593                     u1440:
  1415     0593                     l1667:
  1416                           
  1417                           ;C:\Program Files\Microchip\xc8\v2.40\pic\sources\c90\common\doprnt.c: 1443:      ((*sp+
      +                          + = ('0')));
  1418     0593  082D               	movf	sprintf@sp,w
  1419     0594  0084               	movwf	4
  1420     0595  3030               	movlw	48
  1421     0596  1383               	bcf	3,7	;select IRP bank0
  1422     0597  0080               	movwf	0
  1423     0598                     l1669:
  1424     0598  3001               	movlw	1
  1425     0599  00A3               	movwf	??_sprintf
  1426     059A  0823               	movf	??_sprintf,w
  1427     059B  07AD               	addwf	sprintf@sp,f
  1428     059C                     l1671:
  1429     059C  30FF               	movlw	255
  1430     059D  07AB               	addwf	sprintf@width,f
  1431     059E  1803               	skipnc
  1432     059F  0AAC               	incf	sprintf@width+1,f
  1433     05A0  30FF               	movlw	255
  1434     05A1  07AC               	addwf	sprintf@width+1,f
  1435     05A2  082B               	movf	sprintf@width,w
  1436     05A3  042C               	iorwf	sprintf@width+1,w
  1437     05A4  1D03               	btfss	3,2
  1438     05A5  2DA7               	goto	u1451
  1439     05A6  2DA8               	goto	u1450
  1440     05A7                     u1451:
  1441     05A7  2D93               	goto	l1667
  1442     05A8                     u1450:
  1443     05A8  2DD3               	goto	l1687
  1444     05A9                     l1673:
  1445                           
  1446                           ;C:\Program Files\Microchip\xc8\v2.40\pic\sources\c90\common\doprnt.c: 1448:   {;C:\Prog
      +                          ram Files\Microchip\xc8\v2.40\pic\sources\c90\common\doprnt.c: 1450:    if(width
  1447     05A9  082B               	movf	sprintf@width,w
  1448     05AA  042C               	iorwf	sprintf@width+1,w
  1449     05AB  1903               	btfsc	3,2
  1450     05AC  2DAE               	goto	u1461
  1451     05AD  2DAF               	goto	u1460
  1452     05AE                     u1461:
  1453     05AE  2DC4               	goto	l1681
  1454     05AF                     u1460:
  1455     05AF                     l1675:
  1456                           
  1457                           ;C:\Program Files\Microchip\xc8\v2.40\pic\sources\c90\common\doprnt.c: 1456:      ((*sp+
      +                          + = (' ')));
  1458     05AF  082D               	movf	sprintf@sp,w
  1459     05B0  0084               	movwf	4
  1460     05B1  3020               	movlw	32
  1461     05B2  1383               	bcf	3,7	;select IRP bank0
  1462     05B3  0080               	movwf	0
  1463     05B4                     l1677:
  1464     05B4  3001               	movlw	1
  1465     05B5  00A3               	movwf	??_sprintf
  1466     05B6  0823               	movf	??_sprintf,w
  1467     05B7  07AD               	addwf	sprintf@sp,f
  1468     05B8                     l1679:
  1469     05B8  30FF               	movlw	255
  1470     05B9  07AB               	addwf	sprintf@width,f
  1471     05BA  1803               	skipnc
  1472     05BB  0AAC               	incf	sprintf@width+1,f
  1473     05BC  30FF               	movlw	255
  1474     05BD  07AC               	addwf	sprintf@width+1,f
  1475     05BE  082B               	movf	sprintf@width,w
  1476     05BF  042C               	iorwf	sprintf@width+1,w
  1477     05C0  1D03               	btfss	3,2
  1478     05C1  2DC3               	goto	u1471
  1479     05C2  2DC4               	goto	u1470
  1480     05C3                     u1471:
  1481     05C3  2DAF               	goto	l1675
  1482     05C4                     u1470:
  1483     05C4                     l1681:
  1484                           
  1485                           ;C:\Program Files\Microchip\xc8\v2.40\pic\sources\c90\common\doprnt.c: 1464:    if(flag 
      +                          & 0x03)
  1486     05C4  082A               	movf	sprintf@flag,w
  1487     05C5  3903               	andlw	3
  1488     05C6  1903               	btfsc	3,2
  1489     05C7  2DC9               	goto	u1481
  1490     05C8  2DCA               	goto	u1480
  1491     05C9                     u1481:
  1492     05C9  2DD3               	goto	l1687
  1493     05CA                     u1480:
  1494     05CA                     l1683:
  1495                           
  1496                           ;C:\Program Files\Microchip\xc8\v2.40\pic\sources\c90\common\doprnt.c: 1465:     ((*sp++
      +                           = ('-')));
  1497     05CA  082D               	movf	sprintf@sp,w
  1498     05CB  0084               	movwf	4
  1499     05CC  302D               	movlw	45
  1500     05CD  1383               	bcf	3,7	;select IRP bank0
  1501     05CE  0080               	movwf	0
  1502     05CF                     l1685:
  1503     05CF  3001               	movlw	1
  1504     05D0  00A3               	movwf	??_sprintf
  1505     05D1  0823               	movf	??_sprintf,w
  1506     05D2  07AD               	addwf	sprintf@sp,f
  1507     05D3                     l1687:
  1508                           
  1509                           ;C:\Program Files\Microchip\xc8\v2.40\pic\sources\c90\common\doprnt.c: 1498:   prec = c;
  1510     05D3  082E               	movf	sprintf@c,w
  1511     05D4  00A7               	movwf	sprintf@prec
  1512                           
  1513                           ;C:\Program Files\Microchip\xc8\v2.40\pic\sources\c90\common\doprnt.c: 1500:   while(pre
      +                          c--) {
  1514     05D5  2E0B               	goto	l1695
  1515     05D6                     l1689:
  1516                           
  1517                           ;C:\Program Files\Microchip\xc8\v2.40\pic\sources\c90\common\doprnt.c: 1504:    {;C:\Pro
      +                          gram Files\Microchip\xc8\v2.40\pic\sources\c90\common\doprnt.c: 1515:     c = (val / dpo
      +                          wers[(unsigned char)prec]) % 10 + '0';
  1518     05D6  300A               	movlw	10
  1519     05D7  00F8               	movwf	___lwmod@divisor
  1520     05D8  3000               	movlw	0
  1521     05D9  00F9               	movwf	___lwmod@divisor+1
  1522     05DA  0827               	movf	sprintf@prec,w
  1523     05DB  00A3               	movwf	??_sprintf
  1524     05DC  0723               	addwf	??_sprintf,w
  1525     05DD  3E01               	addlw	low ((_dpowers-__stringbase)| (0+32768))
  1526     05DE  0084               	movwf	4
  1527     05DF  120A  118A  200D  120A  118A  	fcall	stringdir
  1528     05E4  00F0               	movwf	___lwdiv@divisor
  1529     05E5  120A  118A  200D  120A  118A  	fcall	stringdir
  1530     05EA  00F1               	movwf	___lwdiv@divisor+1
  1531     05EB  0829               	movf	sprintf@val+1,w
  1532     05EC  00F3               	movwf	___lwdiv@dividend+1
  1533     05ED  0828               	movf	sprintf@val,w
  1534     05EE  00F2               	movwf	___lwdiv@dividend
  1535     05EF  120A  118A  216A  120A  118A  	fcall	___lwdiv
  1536     05F4  0871               	movf	?___lwdiv+1,w
  1537     05F5  00FB               	movwf	___lwmod@dividend+1
  1538     05F6  0870               	movf	?___lwdiv,w
  1539     05F7  00FA               	movwf	___lwmod@dividend
  1540     05F8  120A  118A  20EE  120A  118A  	fcall	___lwmod
  1541     05FD  0878               	movf	?___lwmod,w
  1542     05FE  3E30               	addlw	48
  1543     05FF  1283               	bcf	3,5	;RP0=0, select bank0
  1544     0600  1303               	bcf	3,6	;RP1=0, select bank0
  1545     0601  00AE               	movwf	sprintf@c
  1546     0602                     l1691:
  1547                           
  1548                           ;C:\Program Files\Microchip\xc8\v2.40\pic\sources\c90\common\doprnt.c: 1549:    };C:\Pro
      +                          gram Files\Microchip\xc8\v2.40\pic\sources\c90\common\doprnt.c: 1550:    ((*sp++ = (c)))
      +                          ;
  1549     0602  082D               	movf	sprintf@sp,w
  1550     0603  0084               	movwf	4
  1551     0604  082E               	movf	sprintf@c,w
  1552     0605  1383               	bcf	3,7	;select IRP bank0
  1553     0606  0080               	movwf	0
  1554     0607                     l1693:
  1555     0607  3001               	movlw	1
  1556     0608  00A3               	movwf	??_sprintf
  1557     0609  0823               	movf	??_sprintf,w
  1558     060A  07AD               	addwf	sprintf@sp,f
  1559     060B                     l1695:
  1560                           
  1561                           ;C:\Program Files\Microchip\xc8\v2.40\pic\sources\c90\common\doprnt.c: 1500:   while(pre
      +                          c--) {
  1562     060B  30FF               	movlw	255
  1563     060C  00A3               	movwf	??_sprintf
  1564     060D  0823               	movf	??_sprintf,w
  1565     060E  07A7               	addwf	sprintf@prec,f
  1566     060F  0A27               	incf	sprintf@prec,w
  1567     0610  1D03               	btfss	3,2
  1568     0611  2E13               	goto	u1491
  1569     0612  2E14               	goto	u1490
  1570     0613                     u1491:
  1571     0613  2DD6               	goto	l1689
  1572     0614                     u1490:
  1573     0614                     l1697:
  1574                           
  1575                           ;C:\Program Files\Microchip\xc8\v2.40\pic\sources\c90\common\doprnt.c: 553:  while((c = 
      +                          *f++)) {
  1576     0614  3001               	movlw	1
  1577     0615  07A0               	addwf	sprintf@f,f
  1578     0616  30FF               	movlw	-1
  1579     0617  0720               	addwf	sprintf@f,w
  1580     0618  0084               	movwf	4
  1581     0619  120A  118A  200D  120A  118A  	fcall	stringdir
  1582     061E  00AE               	movwf	sprintf@c
  1583     061F  082E               	movf	sprintf@c,w
  1584     0620  1D03               	btfss	3,2
  1585     0621  2E23               	goto	u1501
  1586     0622  2E24               	goto	u1500
  1587     0623                     u1501:
  1588     0623  2C71               	goto	l1595
  1589     0624                     u1500:
  1590     0624                     l1699:
  1591                           
  1592                           ;C:\Program Files\Microchip\xc8\v2.40\pic\sources\c90\common\doprnt.c: 1564:  *sp = 0;
  1593     0624  082D               	movf	sprintf@sp,w
  1594     0625  0084               	movwf	4
  1595     0626  1383               	bcf	3,7	;select IRP bank0
  1596     0627  0180               	clrf	0
  1597     0628                     l310:
  1598     0628  0008               	return
  1599     0629                     __end_of_sprintf:
  1600                           
  1601                           	psect	text2
  1602     004C                     __ptext2:	
  1603 ;; *************** function _isdigit *****************
  1604 ;; Defined at:
  1605 ;;		line 8 in file "C:\Program Files\Microchip\xc8\v2.40\pic\sources\c90\common\isdigit.c"
  1606 ;; Parameters:    Size  Location     Type
  1607 ;;  c               1    wreg     unsigned char 
  1608 ;; Auto vars:     Size  Location     Type
  1609 ;;  c               1    1[COMMON] unsigned char 
  1610 ;; Return value:  Size  Location     Type
  1611 ;;		None               void
  1612 ;; Registers used:
  1613 ;;		wreg, status,2, status,0
  1614 ;; Tracked objects:
  1615 ;;		On entry : 0/0
  1616 ;;		On exit  : 0/0
  1617 ;;		Unchanged: 0/0
  1618 ;; Data sizes:     COMMON   BANK0   BANK1   BANK3   BANK2
  1619 ;;      Params:         0       0       0       0       0
  1620 ;;      Locals:         2       0       0       0       0
  1621 ;;      Temps:          0       0       0       0       0
  1622 ;;      Totals:         2       0       0       0       0
  1623 ;;Total ram usage:        2 bytes
  1624 ;; Hardware stack levels used: 1
  1625 ;; This function calls:
  1626 ;;		Nothing
  1627 ;; This function is called by:
  1628 ;;		_sprintf
  1629 ;; This function uses a non-reentrant model
  1630 ;;
  1631                           
  1632     004C                     _isdigit:	
  1633                           ;psect for function _isdigit
  1634                           
  1635                           
  1636                           ;incstack = 0
  1637                           ; Regs used in _isdigit: [wreg+status,2+status,0]
  1638                           ;isdigit@c stored from wreg
  1639     004C  00F1               	movwf	isdigit@c
  1640     004D                     l1479:
  1641     004D  01F0               	clrf	_isdigit$599
  1642     004E                     l1481:
  1643     004E  303A               	movlw	58
  1644     004F  0271               	subwf	isdigit@c,w
  1645     0050  1803               	skipnc
  1646     0051  2853               	goto	u1101
  1647     0052  2854               	goto	u1100
  1648     0053                     u1101:
  1649     0053  285C               	goto	l1487
  1650     0054                     u1100:
  1651     0054                     l1483:
  1652     0054  3030               	movlw	48
  1653     0055  0271               	subwf	isdigit@c,w
  1654     0056  1C03               	skipc
  1655     0057  2859               	goto	u1111
  1656     0058  285A               	goto	u1110
  1657     0059                     u1111:
  1658     0059  285C               	goto	l1487
  1659     005A                     u1110:
  1660     005A                     l1485:
  1661     005A  01F0               	clrf	_isdigit$599
  1662     005B  0AF0               	incf	_isdigit$599,f
  1663     005C                     l1487:
  1664     005C  0C70               	rrf	_isdigit$599,w
  1665     005D                     l767:
  1666     005D  0008               	return
  1667     005E                     __end_of_isdigit:
  1668                           
  1669                           	psect	text3
  1670     009A                     __ptext3:	
  1671 ;; *************** function ___wmul *****************
  1672 ;; Defined at:
  1673 ;;		line 15 in file "C:\Program Files\Microchip\xc8\v2.40\pic\sources\c90\common\Umul16.c"
  1674 ;; Parameters:    Size  Location     Type
  1675 ;;  multiplier      2    0[COMMON] unsigned int 
  1676 ;;  multiplicand    2    2[COMMON] unsigned int 
  1677 ;; Auto vars:     Size  Location     Type
  1678 ;;  product         2    4[COMMON] unsigned int 
  1679 ;; Return value:  Size  Location     Type
  1680 ;;                  2    0[COMMON] unsigned int 
  1681 ;; Registers used:
  1682 ;;		wreg, status,2, status,0
  1683 ;; Tracked objects:
  1684 ;;		On entry : 0/0
  1685 ;;		On exit  : 0/0
  1686 ;;		Unchanged: 0/0
  1687 ;; Data sizes:     COMMON   BANK0   BANK1   BANK3   BANK2
  1688 ;;      Params:         4       0       0       0       0
  1689 ;;      Locals:         2       0       0       0       0
  1690 ;;      Temps:          0       0       0       0       0
  1691 ;;      Totals:         6       0       0       0       0
  1692 ;;Total ram usage:        6 bytes
  1693 ;; Hardware stack levels used: 1
  1694 ;; This function calls:
  1695 ;;		Nothing
  1696 ;; This function is called by:
  1697 ;;		_sprintf
  1698 ;; This function uses a non-reentrant model
  1699 ;;
  1700                           
  1701     009A                     ___wmul:	
  1702                           ;psect for function ___wmul
  1703                           
  1704     009A                     l1491:	
  1705                           ;incstack = 0
  1706                           ; Regs used in ___wmul: [wreg+status,2+status,0]
  1707                           
  1708     009A  01F4               	clrf	___wmul@product
  1709     009B  01F5               	clrf	___wmul@product+1
  1710     009C                     l1493:
  1711     009C  1C70               	btfss	___wmul@multiplier,0
  1712     009D  289F               	goto	u1121
  1713     009E  28A0               	goto	u1120
  1714     009F                     u1121:
  1715     009F  28A6               	goto	l314
  1716     00A0                     u1120:
  1717     00A0                     l1495:
  1718     00A0  0872               	movf	___wmul@multiplicand,w
  1719     00A1  07F4               	addwf	___wmul@product,f
  1720     00A2  1803               	skipnc
  1721     00A3  0AF5               	incf	___wmul@product+1,f
  1722     00A4  0873               	movf	___wmul@multiplicand+1,w
  1723     00A5  07F5               	addwf	___wmul@product+1,f
  1724     00A6                     l314:
  1725     00A6  3001               	movlw	1
  1726     00A7                     u1135:
  1727     00A7  1003               	clrc
  1728     00A8  0DF2               	rlf	___wmul@multiplicand,f
  1729     00A9  0DF3               	rlf	___wmul@multiplicand+1,f
  1730     00AA  3EFF               	addlw	-1
  1731     00AB  1D03               	skipz
  1732     00AC  28A7               	goto	u1135
  1733     00AD                     l1497:
  1734     00AD  3001               	movlw	1
  1735     00AE                     u1145:
  1736     00AE  1003               	clrc
  1737     00AF  0CF1               	rrf	___wmul@multiplier+1,f
  1738     00B0  0CF0               	rrf	___wmul@multiplier,f
  1739     00B1  3EFF               	addlw	-1
  1740     00B2  1D03               	skipz
  1741     00B3  28AE               	goto	u1145
  1742     00B4                     l1499:
  1743     00B4  0870               	movf	___wmul@multiplier,w
  1744     00B5  0471               	iorwf	___wmul@multiplier+1,w
  1745     00B6  1D03               	btfss	3,2
  1746     00B7  28B9               	goto	u1151
  1747     00B8  28BA               	goto	u1150
  1748     00B9                     u1151:
  1749     00B9  289C               	goto	l1493
  1750     00BA                     u1150:
  1751     00BA                     l1501:
  1752     00BA  0875               	movf	___wmul@product+1,w
  1753     00BB  00F1               	movwf	?___wmul+1
  1754     00BC  0874               	movf	___wmul@product,w
  1755     00BD  00F0               	movwf	?___wmul
  1756     00BE                     l316:
  1757     00BE  0008               	return
  1758     00BF                     __end_of___wmul:
  1759                           
  1760                           	psect	text4
  1761     00EE                     __ptext4:	
  1762 ;; *************** function ___lwmod *****************
  1763 ;; Defined at:
  1764 ;;		line 5 in file "C:\Program Files\Microchip\xc8\v2.40\pic\sources\c90\common\lwmod.c"
  1765 ;; Parameters:    Size  Location     Type
  1766 ;;  divisor         2    8[COMMON] unsigned int 
  1767 ;;  dividend        2   10[COMMON] unsigned int 
  1768 ;; Auto vars:     Size  Location     Type
  1769 ;;  counter         1   13[COMMON] unsigned char 
  1770 ;; Return value:  Size  Location     Type
  1771 ;;                  2    8[COMMON] unsigned int 
  1772 ;; Registers used:
  1773 ;;		wreg, status,2, status,0
  1774 ;; Tracked objects:
  1775 ;;		On entry : 0/0
  1776 ;;		On exit  : 0/0
  1777 ;;		Unchanged: 0/0
  1778 ;; Data sizes:     COMMON   BANK0   BANK1   BANK3   BANK2
  1779 ;;      Params:         4       0       0       0       0
  1780 ;;      Locals:         1       0       0       0       0
  1781 ;;      Temps:          1       0       0       0       0
  1782 ;;      Totals:         6       0       0       0       0
  1783 ;;Total ram usage:        6 bytes
  1784 ;; Hardware stack levels used: 1
  1785 ;; This function calls:
  1786 ;;		Nothing
  1787 ;; This function is called by:
  1788 ;;		_sprintf
  1789 ;; This function uses a non-reentrant model
  1790 ;;
  1791                           
  1792     00EE                     ___lwmod:	
  1793                           ;psect for function ___lwmod
  1794                           
  1795     00EE                     l1531:	
  1796                           ;incstack = 0
  1797                           ; Regs used in ___lwmod: [wreg+status,2+status,0]
  1798                           
  1799     00EE  0878               	movf	___lwmod@divisor,w
  1800     00EF  0479               	iorwf	___lwmod@divisor+1,w
  1801     00F0  1903               	btfsc	3,2
  1802     00F1  28F3               	goto	u1231
  1803     00F2  28F4               	goto	u1230
  1804     00F3                     u1231:
  1805     00F3  2923               	goto	l1549
  1806     00F4                     u1230:
  1807     00F4                     l1533:
  1808     00F4  01FD               	clrf	___lwmod@counter
  1809     00F5  0AFD               	incf	___lwmod@counter,f
  1810     00F6  2902               	goto	l1539
  1811     00F7                     l1535:
  1812     00F7  3001               	movlw	1
  1813     00F8                     u1245:
  1814     00F8  1003               	clrc
  1815     00F9  0DF8               	rlf	___lwmod@divisor,f
  1816     00FA  0DF9               	rlf	___lwmod@divisor+1,f
  1817     00FB  3EFF               	addlw	-1
  1818     00FC  1D03               	skipz
  1819     00FD  28F8               	goto	u1245
  1820     00FE                     l1537:
  1821     00FE  3001               	movlw	1
  1822     00FF  00FC               	movwf	??___lwmod
  1823     0100  087C               	movf	??___lwmod,w
  1824     0101  07FD               	addwf	___lwmod@counter,f
  1825     0102                     l1539:
  1826     0102  1FF9               	btfss	___lwmod@divisor+1,7
  1827     0103  2905               	goto	u1251
  1828     0104  2906               	goto	u1250
  1829     0105                     u1251:
  1830     0105  28F7               	goto	l1535
  1831     0106                     u1250:
  1832     0106                     l1541:
  1833     0106  0879               	movf	___lwmod@divisor+1,w
  1834     0107  027B               	subwf	___lwmod@dividend+1,w
  1835     0108  1D03               	skipz
  1836     0109  290C               	goto	u1265
  1837     010A  0878               	movf	___lwmod@divisor,w
  1838     010B  027A               	subwf	___lwmod@dividend,w
  1839     010C                     u1265:
  1840     010C  1C03               	skipc
  1841     010D  290F               	goto	u1261
  1842     010E  2910               	goto	u1260
  1843     010F                     u1261:
  1844     010F  2916               	goto	l1545
  1845     0110                     u1260:
  1846     0110                     l1543:
  1847     0110  0878               	movf	___lwmod@divisor,w
  1848     0111  02FA               	subwf	___lwmod@dividend,f
  1849     0112  0879               	movf	___lwmod@divisor+1,w
  1850     0113  1C03               	skipc
  1851     0114  03FB               	decf	___lwmod@dividend+1,f
  1852     0115  02FB               	subwf	___lwmod@dividend+1,f
  1853     0116                     l1545:
  1854     0116  3001               	movlw	1
  1855     0117                     u1275:
  1856     0117  1003               	clrc
  1857     0118  0CF9               	rrf	___lwmod@divisor+1,f
  1858     0119  0CF8               	rrf	___lwmod@divisor,f
  1859     011A  3EFF               	addlw	-1
  1860     011B  1D03               	skipz
  1861     011C  2917               	goto	u1275
  1862     011D                     l1547:
  1863     011D  3001               	movlw	1
  1864     011E  02FD               	subwf	___lwmod@counter,f
  1865     011F  1D03               	btfss	3,2
  1866     0120  2922               	goto	u1281
  1867     0121  2923               	goto	u1280
  1868     0122                     u1281:
  1869     0122  2906               	goto	l1541
  1870     0123                     u1280:
  1871     0123                     l1549:
  1872     0123  087B               	movf	___lwmod@dividend+1,w
  1873     0124  00F9               	movwf	?___lwmod+1
  1874     0125  087A               	movf	___lwmod@dividend,w
  1875     0126  00F8               	movwf	?___lwmod
  1876     0127                     l596:
  1877     0127  0008               	return
  1878     0128                     __end_of___lwmod:
  1879                           
  1880                           	psect	text5
  1881     016A                     __ptext5:	
  1882 ;; *************** function ___lwdiv *****************
  1883 ;; Defined at:
  1884 ;;		line 5 in file "C:\Program Files\Microchip\xc8\v2.40\pic\sources\c90\common\lwdiv.c"
  1885 ;; Parameters:    Size  Location     Type
  1886 ;;  divisor         2    0[COMMON] unsigned int 
  1887 ;;  dividend        2    2[COMMON] unsigned int 
  1888 ;; Auto vars:     Size  Location     Type
  1889 ;;  quotient        2    5[COMMON] unsigned int 
  1890 ;;  counter         1    7[COMMON] unsigned char 
  1891 ;; Return value:  Size  Location     Type
  1892 ;;                  2    0[COMMON] unsigned int 
  1893 ;; Registers used:
  1894 ;;		wreg, status,2, status,0
  1895 ;; Tracked objects:
  1896 ;;		On entry : 0/0
  1897 ;;		On exit  : 0/0
  1898 ;;		Unchanged: 0/0
  1899 ;; Data sizes:     COMMON   BANK0   BANK1   BANK3   BANK2
  1900 ;;      Params:         4       0       0       0       0
  1901 ;;      Locals:         3       0       0       0       0
  1902 ;;      Temps:          1       0       0       0       0
  1903 ;;      Totals:         8       0       0       0       0
  1904 ;;Total ram usage:        8 bytes
  1905 ;; Hardware stack levels used: 1
  1906 ;; This function calls:
  1907 ;;		Nothing
  1908 ;; This function is called by:
  1909 ;;		_sprintf
  1910 ;; This function uses a non-reentrant model
  1911 ;;
  1912                           
  1913     016A                     ___lwdiv:	
  1914                           ;psect for function ___lwdiv
  1915                           
  1916     016A                     l1505:	
  1917                           ;incstack = 0
  1918                           ; Regs used in ___lwdiv: [wreg+status,2+status,0]
  1919                           
  1920     016A  01F5               	clrf	___lwdiv@quotient
  1921     016B  01F6               	clrf	___lwdiv@quotient+1
  1922     016C                     l1507:
  1923     016C  0870               	movf	___lwdiv@divisor,w
  1924     016D  0471               	iorwf	___lwdiv@divisor+1,w
  1925     016E  1903               	btfsc	3,2
  1926     016F  2971               	goto	u1161
  1927     0170  2972               	goto	u1160
  1928     0171                     u1161:
  1929     0171  29A9               	goto	l1527
  1930     0172                     u1160:
  1931     0172                     l1509:
  1932     0172  01F7               	clrf	___lwdiv@counter
  1933     0173  0AF7               	incf	___lwdiv@counter,f
  1934     0174  2980               	goto	l1515
  1935     0175                     l1511:
  1936     0175  3001               	movlw	1
  1937     0176                     u1175:
  1938     0176  1003               	clrc
  1939     0177  0DF0               	rlf	___lwdiv@divisor,f
  1940     0178  0DF1               	rlf	___lwdiv@divisor+1,f
  1941     0179  3EFF               	addlw	-1
  1942     017A  1D03               	skipz
  1943     017B  2976               	goto	u1175
  1944     017C                     l1513:
  1945     017C  3001               	movlw	1
  1946     017D  00F4               	movwf	??___lwdiv
  1947     017E  0874               	movf	??___lwdiv,w
  1948     017F  07F7               	addwf	___lwdiv@counter,f
  1949     0180                     l1515:
  1950     0180  1FF1               	btfss	___lwdiv@divisor+1,7
  1951     0181  2983               	goto	u1181
  1952     0182  2984               	goto	u1180
  1953     0183                     u1181:
  1954     0183  2975               	goto	l1511
  1955     0184                     u1180:
  1956     0184                     l1517:
  1957     0184  3001               	movlw	1
  1958     0185                     u1195:
  1959     0185  1003               	clrc
  1960     0186  0DF5               	rlf	___lwdiv@quotient,f
  1961     0187  0DF6               	rlf	___lwdiv@quotient+1,f
  1962     0188  3EFF               	addlw	-1
  1963     0189  1D03               	skipz
  1964     018A  2985               	goto	u1195
  1965     018B  0871               	movf	___lwdiv@divisor+1,w
  1966     018C  0273               	subwf	___lwdiv@dividend+1,w
  1967     018D  1D03               	skipz
  1968     018E  2991               	goto	u1205
  1969     018F  0870               	movf	___lwdiv@divisor,w
  1970     0190  0272               	subwf	___lwdiv@dividend,w
  1971     0191                     u1205:
  1972     0191  1C03               	skipc
  1973     0192  2994               	goto	u1201
  1974     0193  2995               	goto	u1200
  1975     0194                     u1201:
  1976     0194  299C               	goto	l1523
  1977     0195                     u1200:
  1978     0195                     l1519:
  1979     0195  0870               	movf	___lwdiv@divisor,w
  1980     0196  02F2               	subwf	___lwdiv@dividend,f
  1981     0197  0871               	movf	___lwdiv@divisor+1,w
  1982     0198  1C03               	skipc
  1983     0199  03F3               	decf	___lwdiv@dividend+1,f
  1984     019A  02F3               	subwf	___lwdiv@dividend+1,f
  1985     019B                     l1521:
  1986     019B  1475               	bsf	___lwdiv@quotient,0
  1987     019C                     l1523:
  1988     019C  3001               	movlw	1
  1989     019D                     u1215:
  1990     019D  1003               	clrc
  1991     019E  0CF1               	rrf	___lwdiv@divisor+1,f
  1992     019F  0CF0               	rrf	___lwdiv@divisor,f
  1993     01A0  3EFF               	addlw	-1
  1994     01A1  1D03               	skipz
  1995     01A2  299D               	goto	u1215
  1996     01A3                     l1525:
  1997     01A3  3001               	movlw	1
  1998     01A4  02F7               	subwf	___lwdiv@counter,f
  1999     01A5  1D03               	btfss	3,2
  2000     01A6  29A8               	goto	u1221
  2001     01A7  29A9               	goto	u1220
  2002     01A8                     u1221:
  2003     01A8  2984               	goto	l1517
  2004     01A9                     u1220:
  2005     01A9                     l1527:
  2006     01A9  0876               	movf	___lwdiv@quotient+1,w
  2007     01AA  00F1               	movwf	?___lwdiv+1
  2008     01AB  0875               	movf	___lwdiv@quotient,w
  2009     01AC  00F0               	movwf	?___lwdiv
  2010     01AD                     l586:
  2011     01AD  0008               	return
  2012     01AE                     __end_of___lwdiv:
  2013                           
  2014                           	psect	text6
  2015     0297                     __ptext6:	
  2016 ;; *************** function ___xxtofl *****************
  2017 ;; Defined at:
  2018 ;;		line 10 in file "C:\Program Files\Microchip\xc8\v2.40\pic\sources\c90\common\xxtofl.c"
  2019 ;; Parameters:    Size  Location     Type
  2020 ;;  sign            1    wreg     unsigned char 
  2021 ;;  val             4    0[COMMON] long 
  2022 ;; Auto vars:     Size  Location     Type
  2023 ;;  sign            1    8[COMMON] unsigned char 
  2024 ;;  arg             4   10[COMMON] unsigned long 
  2025 ;;  exp             1    9[COMMON] unsigned char 
  2026 ;; Return value:  Size  Location     Type
  2027 ;;                  4    0[COMMON] unsigned char 
  2028 ;; Registers used:
  2029 ;;		wreg, status,2, status,0
  2030 ;; Tracked objects:
  2031 ;;		On entry : 0/0
  2032 ;;		On exit  : 0/0
  2033 ;;		Unchanged: 0/0
  2034 ;; Data sizes:     COMMON   BANK0   BANK1   BANK3   BANK2
  2035 ;;      Params:         4       0       0       0       0
  2036 ;;      Locals:         6       0       0       0       0
  2037 ;;      Temps:          4       0       0       0       0
  2038 ;;      Totals:        14       0       0       0       0
  2039 ;;Total ram usage:       14 bytes
  2040 ;; Hardware stack levels used: 1
  2041 ;; This function calls:
  2042 ;;		Nothing
  2043 ;; This function is called by:
  2044 ;;		_main
  2045 ;; This function uses a non-reentrant model
  2046 ;;
  2047                           
  2048     0297                     ___xxtofl:	
  2049                           ;psect for function ___xxtofl
  2050                           
  2051                           
  2052                           ;incstack = 0
  2053                           ; Regs used in ___xxtofl: [wreg+status,2+status,0]
  2054                           ;___xxtofl@sign stored from wreg
  2055     0297  00F8               	movwf	___xxtofl@sign
  2056     0298                     l1889:
  2057     0298  0878               	movf	___xxtofl@sign,w
  2058     0299  1903               	btfsc	3,2
  2059     029A  2A9C               	goto	u1901
  2060     029B  2A9D               	goto	u1900
  2061     029C                     u1901:
  2062     029C  2AB1               	goto	l1895
  2063     029D                     u1900:
  2064     029D                     l1891:
  2065     029D  1FF3               	btfss	___xxtofl@val+3,7
  2066     029E  2AA0               	goto	u1911
  2067     029F  2AA1               	goto	u1910
  2068     02A0                     u1911:
  2069     02A0  2AB1               	goto	l1895
  2070     02A1                     u1910:
  2071     02A1                     l1893:
  2072     02A1  0970               	comf	___xxtofl@val,w
  2073     02A2  00FA               	movwf	___xxtofl@arg
  2074     02A3  0971               	comf	___xxtofl@val+1,w
  2075     02A4  00FB               	movwf	___xxtofl@arg+1
  2076     02A5  0972               	comf	___xxtofl@val+2,w
  2077     02A6  00FC               	movwf	___xxtofl@arg+2
  2078     02A7  0973               	comf	___xxtofl@val+3,w
  2079     02A8  00FD               	movwf	___xxtofl@arg+3
  2080     02A9  0AFA               	incf	___xxtofl@arg,f
  2081     02AA  1903               	skipnz
  2082     02AB  0AFB               	incf	___xxtofl@arg+1,f
  2083     02AC  1903               	skipnz
  2084     02AD  0AFC               	incf	___xxtofl@arg+2,f
  2085     02AE  1903               	skipnz
  2086     02AF  0AFD               	incf	___xxtofl@arg+3,f
  2087     02B0  2AB9               	goto	l747
  2088     02B1                     l1895:
  2089     02B1  0873               	movf	___xxtofl@val+3,w
  2090     02B2  00FD               	movwf	___xxtofl@arg+3
  2091     02B3  0872               	movf	___xxtofl@val+2,w
  2092     02B4  00FC               	movwf	___xxtofl@arg+2
  2093     02B5  0871               	movf	___xxtofl@val+1,w
  2094     02B6  00FB               	movwf	___xxtofl@arg+1
  2095     02B7  0870               	movf	___xxtofl@val,w
  2096     02B8  00FA               	movwf	___xxtofl@arg
  2097     02B9                     l747:
  2098     02B9  0873               	movf	___xxtofl@val+3,w
  2099     02BA  0472               	iorwf	___xxtofl@val+2,w
  2100     02BB  0471               	iorwf	___xxtofl@val+1,w
  2101     02BC  0470               	iorwf	___xxtofl@val,w
  2102     02BD  1D03               	skipz
  2103     02BE  2AC0               	goto	u1921
  2104     02BF  2AC1               	goto	u1920
  2105     02C0                     u1921:
  2106     02C0  2ACA               	goto	l1901
  2107     02C1                     u1920:
  2108     02C1                     l1897:
  2109     02C1  3000               	movlw	0
  2110     02C2  00F3               	movwf	?___xxtofl+3
  2111     02C3  3000               	movlw	0
  2112     02C4  00F2               	movwf	?___xxtofl+2
  2113     02C5  3000               	movlw	0
  2114     02C6  00F1               	movwf	?___xxtofl+1
  2115     02C7  3000               	movlw	0
  2116     02C8  00F0               	movwf	?___xxtofl
  2117     02C9  2B4E               	goto	l749
  2118     02CA                     l1901:
  2119     02CA  3096               	movlw	150
  2120     02CB  00F9               	movwf	___xxtofl@exp
  2121     02CC  2ADA               	goto	l1905
  2122     02CD                     l1903:
  2123     02CD  3001               	movlw	1
  2124     02CE  00F4               	movwf	??___xxtofl
  2125     02CF  0874               	movf	??___xxtofl,w
  2126     02D0  07F9               	addwf	___xxtofl@exp,f
  2127     02D1  3001               	movlw	1
  2128     02D2                     u1935:
  2129     02D2  1003               	clrc
  2130     02D3  0CFD               	rrf	___xxtofl@arg+3,f
  2131     02D4  0CFC               	rrf	___xxtofl@arg+2,f
  2132     02D5  0CFB               	rrf	___xxtofl@arg+1,f
  2133     02D6  0CFA               	rrf	___xxtofl@arg,f
  2134     02D7  3EFF               	addlw	-1
  2135     02D8  1D03               	skipz
  2136     02D9  2AD2               	goto	u1935
  2137     02DA                     l1905:
  2138     02DA  30FE               	movlw	254
  2139     02DB  057D               	andwf	___xxtofl@arg+3,w
  2140     02DC  1D03               	btfss	3,2
  2141     02DD  2ADF               	goto	u1941
  2142     02DE  2AE0               	goto	u1940
  2143     02DF                     u1941:
  2144     02DF  2ACD               	goto	l1903
  2145     02E0                     u1940:
  2146     02E0  2AFC               	goto	l753
  2147     02E1                     l1907:
  2148     02E1  3001               	movlw	1
  2149     02E2  00F4               	movwf	??___xxtofl
  2150     02E3  0874               	movf	??___xxtofl,w
  2151     02E4  07F9               	addwf	___xxtofl@exp,f
  2152     02E5                     l1909:
  2153     02E5  3001               	movlw	1
  2154     02E6  07FA               	addwf	___xxtofl@arg,f
  2155     02E7  3000               	movlw	0
  2156     02E8  1803               	skipnc
  2157     02E9  3001               	movlw	1
  2158     02EA  07FB               	addwf	___xxtofl@arg+1,f
  2159     02EB  3000               	movlw	0
  2160     02EC  1803               	skipnc
  2161     02ED  3001               	movlw	1
  2162     02EE  07FC               	addwf	___xxtofl@arg+2,f
  2163     02EF  3000               	movlw	0
  2164     02F0  1803               	skipnc
  2165     02F1  3001               	movlw	1
  2166     02F2  07FD               	addwf	___xxtofl@arg+3,f
  2167     02F3                     l1911:
  2168     02F3  3001               	movlw	1
  2169     02F4                     u1955:
  2170     02F4  1003               	clrc
  2171     02F5  0CFD               	rrf	___xxtofl@arg+3,f
  2172     02F6  0CFC               	rrf	___xxtofl@arg+2,f
  2173     02F7  0CFB               	rrf	___xxtofl@arg+1,f
  2174     02F8  0CFA               	rrf	___xxtofl@arg,f
  2175     02F9  3EFF               	addlw	-1
  2176     02FA  1D03               	skipz
  2177     02FB  2AF4               	goto	u1955
  2178     02FC                     l753:
  2179     02FC  30FF               	movlw	255
  2180     02FD  057D               	andwf	___xxtofl@arg+3,w
  2181     02FE  1D03               	btfss	3,2
  2182     02FF  2B01               	goto	u1961
  2183     0300  2B02               	goto	u1960
  2184     0301                     u1961:
  2185     0301  2AE1               	goto	l1907
  2186     0302                     u1960:
  2187     0302  2B0E               	goto	l1915
  2188     0303                     l1913:
  2189     0303  3001               	movlw	1
  2190     0304  02F9               	subwf	___xxtofl@exp,f
  2191     0305  3001               	movlw	1
  2192     0306  00F4               	movwf	??___xxtofl
  2193     0307                     u1975:
  2194     0307  1003               	clrc
  2195     0308  0DFA               	rlf	___xxtofl@arg,f
  2196     0309  0DFB               	rlf	___xxtofl@arg+1,f
  2197     030A  0DFC               	rlf	___xxtofl@arg+2,f
  2198     030B  0DFD               	rlf	___xxtofl@arg+3,f
  2199     030C  0BF4               	decfsz	??___xxtofl,f
  2200     030D  2B07               	goto	u1975
  2201     030E                     l1915:
  2202     030E  1BFC               	btfsc	___xxtofl@arg+2,7
  2203     030F  2B11               	goto	u1981
  2204     0310  2B12               	goto	u1980
  2205     0311                     u1981:
  2206     0311  2B18               	goto	l760
  2207     0312                     u1980:
  2208     0312                     l1917:
  2209     0312  3002               	movlw	2
  2210     0313  0279               	subwf	___xxtofl@exp,w
  2211     0314  1803               	skipnc
  2212     0315  2B17               	goto	u1991
  2213     0316  2B18               	goto	u1990
  2214     0317                     u1991:
  2215     0317  2B03               	goto	l1913
  2216     0318                     u1990:
  2217     0318                     l760:
  2218     0318  1879               	btfsc	___xxtofl@exp,0
  2219     0319  2B1B               	goto	u2001
  2220     031A  2B1C               	goto	u2000
  2221     031B                     u2001:
  2222     031B  2B24               	goto	l761
  2223     031C                     u2000:
  2224     031C                     l1919:
  2225     031C  30FF               	movlw	255
  2226     031D  05FA               	andwf	___xxtofl@arg,f
  2227     031E  30FF               	movlw	255
  2228     031F  05FB               	andwf	___xxtofl@arg+1,f
  2229     0320  307F               	movlw	127
  2230     0321  05FC               	andwf	___xxtofl@arg+2,f
  2231     0322  30FF               	movlw	255
  2232     0323  05FD               	andwf	___xxtofl@arg+3,f
  2233     0324                     l761:
  2234     0324  1003               	clrc
  2235     0325  0CF9               	rrf	___xxtofl@exp,f
  2236     0326                     l1921:
  2237     0326  0879               	movf	___xxtofl@exp,w
  2238     0327  00F4               	movwf	??___xxtofl
  2239     0328  01F5               	clrf	??___xxtofl+1
  2240     0329  01F6               	clrf	??___xxtofl+2
  2241     032A  01F7               	clrf	??___xxtofl+3
  2242     032B  3018               	movlw	24
  2243     032C                     u2015:
  2244     032C  1003               	clrc
  2245     032D  0DF4               	rlf	??___xxtofl,f
  2246     032E  0DF5               	rlf	??___xxtofl+1,f
  2247     032F  0DF6               	rlf	??___xxtofl+2,f
  2248     0330  0DF7               	rlf	??___xxtofl+3,f
  2249     0331                     u2010:
  2250     0331  3EFF               	addlw	-1
  2251     0332  1D03               	skipz
  2252     0333  2B2C               	goto	u2015
  2253     0334  0874               	movf	??___xxtofl,w
  2254     0335  04FA               	iorwf	___xxtofl@arg,f
  2255     0336  0875               	movf	??___xxtofl+1,w
  2256     0337  04FB               	iorwf	___xxtofl@arg+1,f
  2257     0338  0876               	movf	??___xxtofl+2,w
  2258     0339  04FC               	iorwf	___xxtofl@arg+2,f
  2259     033A  0877               	movf	??___xxtofl+3,w
  2260     033B  04FD               	iorwf	___xxtofl@arg+3,f
  2261     033C                     l1923:
  2262     033C  0878               	movf	___xxtofl@sign,w
  2263     033D  1903               	btfsc	3,2
  2264     033E  2B40               	goto	u2021
  2265     033F  2B41               	goto	u2020
  2266     0340                     u2021:
  2267     0340  2B46               	goto	l1929
  2268     0341                     u2020:
  2269     0341                     l1925:
  2270     0341  1FF3               	btfss	___xxtofl@val+3,7
  2271     0342  2B44               	goto	u2031
  2272     0343  2B45               	goto	u2030
  2273     0344                     u2031:
  2274     0344  2B46               	goto	l1929
  2275     0345                     u2030:
  2276     0345                     l1927:
  2277     0345  17FD               	bsf	___xxtofl@arg+3,7
  2278     0346                     l1929:
  2279     0346  087D               	movf	___xxtofl@arg+3,w
  2280     0347  00F3               	movwf	?___xxtofl+3
  2281     0348  087C               	movf	___xxtofl@arg+2,w
  2282     0349  00F2               	movwf	?___xxtofl+2
  2283     034A  087B               	movf	___xxtofl@arg+1,w
  2284     034B  00F1               	movwf	?___xxtofl+1
  2285     034C  087A               	movf	___xxtofl@arg,w
  2286     034D  00F0               	movwf	?___xxtofl
  2287     034E                     l749:
  2288     034E  0008               	return
  2289     034F                     __end_of___xxtofl:
  2290                           
  2291                           	psect	text7
  2292     021F                     __ptext7:	
  2293 ;; *************** function ___fltol *****************
  2294 ;; Defined at:
  2295 ;;		line 43 in file "C:\Program Files\Microchip\xc8\v2.40\pic\sources\c90\common\fltol.c"
  2296 ;; Parameters:    Size  Location     Type
  2297 ;;  f1              4   26[BANK0 ] unsigned char 
  2298 ;; Auto vars:     Size  Location     Type
  2299 ;;  exp1            1   35[BANK0 ] unsigned char 
  2300 ;;  sign1           1   34[BANK0 ] unsigned char 
  2301 ;; Return value:  Size  Location     Type
  2302 ;;                  4   26[BANK0 ] long 
  2303 ;; Registers used:
  2304 ;;		wreg, status,2, status,0
  2305 ;; Tracked objects:
  2306 ;;		On entry : 0/0
  2307 ;;		On exit  : 0/0
  2308 ;;		Unchanged: 0/0
  2309 ;; Data sizes:     COMMON   BANK0   BANK1   BANK3   BANK2
  2310 ;;      Params:         0       4       0       0       0
  2311 ;;      Locals:         0       2       0       0       0
  2312 ;;      Temps:          0       4       0       0       0
  2313 ;;      Totals:         0      10       0       0       0
  2314 ;;Total ram usage:       10 bytes
  2315 ;; Hardware stack levels used: 1
  2316 ;; This function calls:
  2317 ;;		Nothing
  2318 ;; This function is called by:
  2319 ;;		_main
  2320 ;; This function uses a non-reentrant model
  2321 ;;
  2322                           
  2323     021F                     ___fltol:	
  2324                           ;psect for function ___fltol
  2325                           
  2326     021F                     l1711:	
  2327                           ;incstack = 0
  2328                           ; Regs used in ___fltol: [wreg+status,2+status,0]
  2329                           
  2330     021F  1003               	clrc
  2331     0220  1283               	bcf	3,5	;RP0=0, select bank0
  2332     0221  1303               	bcf	3,6	;RP1=0, select bank0
  2333     0222  0D3C               	rlf	___fltol@f1+2,w
  2334     0223  0D3D               	rlf	___fltol@f1+3,w
  2335     0224  00C3               	movwf	___fltol@exp1
  2336     0225  0843               	movf	___fltol@exp1,w
  2337     0226  1D03               	btfss	3,2
  2338     0227  2A29               	goto	u1511
  2339     0228  2A2A               	goto	u1510
  2340     0229                     u1511:
  2341     0229  2A33               	goto	l1717
  2342     022A                     u1510:
  2343     022A                     l1713:
  2344     022A  3000               	movlw	0
  2345     022B  00BD               	movwf	?___fltol+3
  2346     022C  3000               	movlw	0
  2347     022D  00BC               	movwf	?___fltol+2
  2348     022E  3000               	movlw	0
  2349     022F  00BB               	movwf	?___fltol+1
  2350     0230  3000               	movlw	0
  2351     0231  00BA               	movwf	?___fltol
  2352     0232  2A96               	goto	l500
  2353     0233                     l1717:
  2354     0233  083A               	movf	___fltol@f1,w
  2355     0234  00BE               	movwf	??___fltol
  2356     0235  083B               	movf	___fltol@f1+1,w
  2357     0236  00BF               	movwf	??___fltol+1
  2358     0237  083C               	movf	___fltol@f1+2,w
  2359     0238  00C0               	movwf	??___fltol+2
  2360     0239  083D               	movf	___fltol@f1+3,w
  2361     023A  00C1               	movwf	??___fltol+3
  2362     023B  301F               	movlw	31
  2363     023C                     u1525:
  2364     023C  1003               	clrc
  2365     023D  0CC1               	rrf	??___fltol+3,f
  2366     023E  0CC0               	rrf	??___fltol+2,f
  2367     023F  0CBF               	rrf	??___fltol+1,f
  2368     0240  0CBE               	rrf	??___fltol,f
  2369     0241                     u1520:
  2370     0241  3EFF               	addlw	-1
  2371     0242  1D03               	skipz
  2372     0243  2A3C               	goto	u1525
  2373     0244  083E               	movf	??___fltol,w
  2374     0245  00C2               	movwf	___fltol@sign1
  2375     0246                     l1719:
  2376     0246  17BC               	bsf	___fltol@f1+2,7
  2377     0247                     l1721:
  2378     0247  30FF               	movlw	255
  2379     0248  05BA               	andwf	___fltol@f1,f
  2380     0249  30FF               	movlw	255
  2381     024A  05BB               	andwf	___fltol@f1+1,f
  2382     024B  30FF               	movlw	255
  2383     024C  05BC               	andwf	___fltol@f1+2,f
  2384     024D  3000               	movlw	0
  2385     024E  05BD               	andwf	___fltol@f1+3,f
  2386     024F                     l1723:
  2387     024F  3096               	movlw	150
  2388     0250  02C3               	subwf	___fltol@exp1,f
  2389     0251                     l1725:
  2390     0251  1FC3               	btfss	___fltol@exp1,7
  2391     0252  2A54               	goto	u1531
  2392     0253  2A55               	goto	u1530
  2393     0254                     u1531:
  2394     0254  2A6F               	goto	l1735
  2395     0255                     u1530:
  2396     0255                     l1727:
  2397     0255  0843               	movf	___fltol@exp1,w
  2398     0256  3A80               	xorlw	128
  2399     0257  3E97               	addlw	151
  2400     0258  1803               	skipnc
  2401     0259  2A5B               	goto	u1541
  2402     025A  2A5C               	goto	u1540
  2403     025B                     u1541:
  2404     025B  2A5D               	goto	l1733
  2405     025C                     u1540:
  2406     025C  2A2A               	goto	l1713
  2407     025D                     l1733:
  2408     025D  3001               	movlw	1
  2409     025E                     u1555:
  2410     025E  1003               	clrc
  2411     025F  0CBD               	rrf	___fltol@f1+3,f
  2412     0260  0CBC               	rrf	___fltol@f1+2,f
  2413     0261  0CBB               	rrf	___fltol@f1+1,f
  2414     0262  0CBA               	rrf	___fltol@f1,f
  2415     0263  3EFF               	addlw	-1
  2416     0264  1D03               	skipz
  2417     0265  2A5E               	goto	u1555
  2418     0266  3001               	movlw	1
  2419     0267  00BE               	movwf	??___fltol
  2420     0268  083E               	movf	??___fltol,w
  2421     0269  07C3               	addwf	___fltol@exp1,f
  2422     026A  1D03               	btfss	3,2
  2423     026B  2A6D               	goto	u1561
  2424     026C  2A6E               	goto	u1560
  2425     026D                     u1561:
  2426     026D  2A5D               	goto	l1733
  2427     026E                     u1560:
  2428     026E  2A86               	goto	l1743
  2429     026F                     l1735:
  2430     026F  3020               	movlw	32
  2431     0270  0243               	subwf	___fltol@exp1,w
  2432     0271  1C03               	skipc
  2433     0272  2A74               	goto	u1571
  2434     0273  2A75               	goto	u1570
  2435     0274                     u1571:
  2436     0274  2A81               	goto	l507
  2437     0275                     u1570:
  2438     0275  2A2A               	goto	l1713
  2439     0276                     l1741:
  2440     0276  3001               	movlw	1
  2441     0277  00BE               	movwf	??___fltol
  2442     0278                     u1585:
  2443     0278  1003               	clrc
  2444     0279  0DBA               	rlf	___fltol@f1,f
  2445     027A  0DBB               	rlf	___fltol@f1+1,f
  2446     027B  0DBC               	rlf	___fltol@f1+2,f
  2447     027C  0DBD               	rlf	___fltol@f1+3,f
  2448     027D  0BBE               	decfsz	??___fltol,f
  2449     027E  2A78               	goto	u1585
  2450     027F  3001               	movlw	1
  2451     0280  02C3               	subwf	___fltol@exp1,f
  2452     0281                     l507:
  2453     0281  0843               	movf	___fltol@exp1,w
  2454     0282  1D03               	btfss	3,2
  2455     0283  2A85               	goto	u1591
  2456     0284  2A86               	goto	u1590
  2457     0285                     u1591:
  2458     0285  2A76               	goto	l1741
  2459     0286                     u1590:
  2460     0286                     l1743:
  2461     0286  0842               	movf	___fltol@sign1,w
  2462     0287  1903               	btfsc	3,2
  2463     0288  2A8A               	goto	u1601
  2464     0289  2A8B               	goto	u1600
  2465     028A                     u1601:
  2466     028A  2A96               	goto	l510
  2467     028B                     u1600:
  2468     028B                     l1745:
  2469     028B  09BA               	comf	___fltol@f1,f
  2470     028C  09BB               	comf	___fltol@f1+1,f
  2471     028D  09BC               	comf	___fltol@f1+2,f
  2472     028E  09BD               	comf	___fltol@f1+3,f
  2473     028F  0ABA               	incf	___fltol@f1,f
  2474     0290  1903               	skipnz
  2475     0291  0ABB               	incf	___fltol@f1+1,f
  2476     0292  1903               	skipnz
  2477     0293  0ABC               	incf	___fltol@f1+2,f
  2478     0294  1903               	skipnz
  2479     0295  0ABD               	incf	___fltol@f1+3,f
  2480     0296                     l510:
  2481     0296                     l500:
  2482     0296  0008               	return
  2483     0297                     __end_of___fltol:
  2484                           
  2485                           	psect	text8
  2486     0629                     __ptext8:	
  2487 ;; *************** function ___fldiv *****************
  2488 ;; Defined at:
  2489 ;;		line 8 in file "C:\Program Files\Microchip\xc8\v2.40\pic\sources\c90\common\sprcdiv.c"
  2490 ;; Parameters:    Size  Location     Type
  2491 ;;  a               4    0[BANK0 ] long 
  2492 ;;  b               4    4[BANK0 ] long 
  2493 ;; Auto vars:     Size  Location     Type
  2494 ;;  grs             4   20[BANK0 ] unsigned long 
  2495 ;;  rem             4   13[BANK0 ] unsigned long 
  2496 ;;  new_exp         2   18[BANK0 ] int 
  2497 ;;  aexp            1   25[BANK0 ] unsigned char 
  2498 ;;  bexp            1   24[BANK0 ] unsigned char 
  2499 ;;  sign            1   17[BANK0 ] unsigned char 
  2500 ;; Return value:  Size  Location     Type
  2501 ;;                  4    0[BANK0 ] unsigned char 
  2502 ;; Registers used:
  2503 ;;		wreg, status,2, status,0, btemp+1
  2504 ;; Tracked objects:
  2505 ;;		On entry : 0/0
  2506 ;;		On exit  : 0/0
  2507 ;;		Unchanged: 0/0
  2508 ;; Data sizes:     COMMON   BANK0   BANK1   BANK3   BANK2
  2509 ;;      Params:         0       8       0       0       0
  2510 ;;      Locals:         0      13       0       0       0
  2511 ;;      Temps:          0       5       0       0       0
  2512 ;;      Totals:         0      26       0       0       0
  2513 ;;Total ram usage:       26 bytes
  2514 ;; Hardware stack levels used: 1
  2515 ;; This function calls:
  2516 ;;		Nothing
  2517 ;; This function is called by:
  2518 ;;		_main
  2519 ;; This function uses a non-reentrant model
  2520 ;;
  2521                           
  2522     0629                     ___fldiv:	
  2523                           ;psect for function ___fldiv
  2524                           
  2525     0629                     l1747:	
  2526                           ;incstack = 0
  2527                           ; Regs used in ___fldiv: [wreg+status,2+status,0+btemp+1]
  2528                           
  2529     0629  1283               	bcf	3,5	;RP0=0, select bank0
  2530     062A  1303               	bcf	3,6	;RP1=0, select bank0
  2531     062B  0827               	movf	___fldiv@b+3,w
  2532     062C  3980               	andlw	128
  2533     062D  00B1               	movwf	___fldiv@sign
  2534     062E                     l1749:
  2535     062E  0827               	movf	___fldiv@b+3,w
  2536     062F  00A8               	movwf	??___fldiv
  2537     0630  0728               	addwf	??___fldiv,w
  2538     0631  00B8               	movwf	___fldiv@bexp
  2539     0632                     l1751:
  2540     0632  1FA6               	btfss	___fldiv@b+2,7
  2541     0633  2E35               	goto	u1611
  2542     0634  2E36               	goto	u1610
  2543     0635                     u1611:
  2544     0635  2E37               	goto	l1755
  2545     0636                     u1610:
  2546     0636                     l1753:
  2547     0636  1438               	bsf	___fldiv@bexp,0
  2548     0637                     l1755:
  2549     0637  0838               	movf	___fldiv@bexp,w
  2550     0638  1903               	btfsc	3,2
  2551     0639  2E3B               	goto	u1621
  2552     063A  2E3C               	goto	u1620
  2553     063B                     u1621:
  2554     063B  2E4C               	goto	l1765
  2555     063C                     u1620:
  2556     063C                     l1757:
  2557     063C  0A38               	incf	___fldiv@bexp,w
  2558     063D  1D03               	btfss	3,2
  2559     063E  2E40               	goto	u1631
  2560     063F  2E41               	goto	u1630
  2561     0640                     u1631:
  2562     0640  2E49               	goto	l1761
  2563     0641                     u1630:
  2564     0641                     l1759:
  2565     0641  3000               	movlw	0
  2566     0642  00A7               	movwf	___fldiv@b+3
  2567     0643  3000               	movlw	0
  2568     0644  00A6               	movwf	___fldiv@b+2
  2569     0645  3000               	movlw	0
  2570     0646  00A5               	movwf	___fldiv@b+1
  2571     0647  3000               	movlw	0
  2572     0648  00A4               	movwf	___fldiv@b
  2573     0649                     l1761:
  2574     0649  17A6               	bsf	___fldiv@b+2,7
  2575     064A                     l1763:
  2576     064A  01A7               	clrf	___fldiv@b+3
  2577     064B  2E54               	goto	l1767
  2578     064C                     l1765:
  2579     064C  3000               	movlw	0
  2580     064D  00A7               	movwf	___fldiv@b+3
  2581     064E  3000               	movlw	0
  2582     064F  00A6               	movwf	___fldiv@b+2
  2583     0650  3000               	movlw	0
  2584     0651  00A5               	movwf	___fldiv@b+1
  2585     0652  3000               	movlw	0
  2586     0653  00A4               	movwf	___fldiv@b
  2587     0654                     l1767:
  2588     0654  0823               	movf	___fldiv@a+3,w
  2589     0655  3980               	andlw	128
  2590     0656  00A8               	movwf	??___fldiv
  2591     0657  0828               	movf	??___fldiv,w
  2592     0658  06B1               	xorwf	___fldiv@sign,f
  2593     0659                     l1769:
  2594     0659  0823               	movf	___fldiv@a+3,w
  2595     065A  00A8               	movwf	??___fldiv
  2596     065B  0728               	addwf	??___fldiv,w
  2597     065C  00B9               	movwf	___fldiv@aexp
  2598     065D                     l1771:
  2599     065D  1FA2               	btfss	___fldiv@a+2,7
  2600     065E  2E60               	goto	u1641
  2601     065F  2E61               	goto	u1640
  2602     0660                     u1641:
  2603     0660  2E62               	goto	l1775
  2604     0661                     u1640:
  2605     0661                     l1773:
  2606     0661  1439               	bsf	___fldiv@aexp,0
  2607     0662                     l1775:
  2608     0662  0839               	movf	___fldiv@aexp,w
  2609     0663  1903               	btfsc	3,2
  2610     0664  2E66               	goto	u1651
  2611     0665  2E67               	goto	u1650
  2612     0666                     u1651:
  2613     0666  2E77               	goto	l1785
  2614     0667                     u1650:
  2615     0667                     l1777:
  2616     0667  0A39               	incf	___fldiv@aexp,w
  2617     0668  1D03               	btfss	3,2
  2618     0669  2E6B               	goto	u1661
  2619     066A  2E6C               	goto	u1660
  2620     066B                     u1661:
  2621     066B  2E74               	goto	l1781
  2622     066C                     u1660:
  2623     066C                     l1779:
  2624     066C  3000               	movlw	0
  2625     066D  00A3               	movwf	___fldiv@a+3
  2626     066E  3000               	movlw	0
  2627     066F  00A2               	movwf	___fldiv@a+2
  2628     0670  3000               	movlw	0
  2629     0671  00A1               	movwf	___fldiv@a+1
  2630     0672  3000               	movlw	0
  2631     0673  00A0               	movwf	___fldiv@a
  2632     0674                     l1781:
  2633     0674  17A2               	bsf	___fldiv@a+2,7
  2634     0675                     l1783:
  2635     0675  01A3               	clrf	___fldiv@a+3
  2636     0676  2E7F               	goto	l663
  2637     0677                     l1785:
  2638     0677  3000               	movlw	0
  2639     0678  00A3               	movwf	___fldiv@a+3
  2640     0679  3000               	movlw	0
  2641     067A  00A2               	movwf	___fldiv@a+2
  2642     067B  3000               	movlw	0
  2643     067C  00A1               	movwf	___fldiv@a+1
  2644     067D  3000               	movlw	0
  2645     067E  00A0               	movwf	___fldiv@a
  2646     067F                     l663:
  2647     067F  0823               	movf	___fldiv@a+3,w
  2648     0680  0422               	iorwf	___fldiv@a+2,w
  2649     0681  0421               	iorwf	___fldiv@a+1,w
  2650     0682  0420               	iorwf	___fldiv@a,w
  2651     0683  1D03               	skipz
  2652     0684  2E86               	goto	u1671
  2653     0685  2E87               	goto	u1670
  2654     0686                     u1671:
  2655     0686  2EA0               	goto	l1795
  2656     0687                     u1670:
  2657     0687                     l1787:
  2658     0687  3000               	movlw	0
  2659     0688  00A7               	movwf	___fldiv@b+3
  2660     0689  3000               	movlw	0
  2661     068A  00A6               	movwf	___fldiv@b+2
  2662     068B  3000               	movlw	0
  2663     068C  00A5               	movwf	___fldiv@b+1
  2664     068D  3000               	movlw	0
  2665     068E  00A4               	movwf	___fldiv@b
  2666     068F  3080               	movlw	128
  2667     0690  04A6               	iorwf	___fldiv@b+2,f
  2668     0691  307F               	movlw	127
  2669     0692  04A7               	iorwf	___fldiv@b+3,f
  2670     0693                     l1789:
  2671     0693  0831               	movf	___fldiv@sign,w
  2672     0694  00A8               	movwf	??___fldiv
  2673     0695  0828               	movf	??___fldiv,w
  2674     0696  04A7               	iorwf	___fldiv@b+3,f
  2675     0697                     l1791:
  2676     0697  0827               	movf	___fldiv@b+3,w
  2677     0698  00A3               	movwf	?___fldiv+3
  2678     0699  0826               	movf	___fldiv@b+2,w
  2679     069A  00A2               	movwf	?___fldiv+2
  2680     069B  0825               	movf	___fldiv@b+1,w
  2681     069C  00A1               	movwf	?___fldiv+1
  2682     069D  0824               	movf	___fldiv@b,w
  2683     069E  00A0               	movwf	?___fldiv
  2684     069F  2FFB               	goto	l665
  2685     06A0                     l1795:
  2686     06A0  0838               	movf	___fldiv@bexp,w
  2687     06A1  1D03               	btfss	3,2
  2688     06A2  2EA4               	goto	u1681
  2689     06A3  2EA5               	goto	u1680
  2690     06A4                     u1681:
  2691     06A4  2EAE               	goto	l1801
  2692     06A5                     u1680:
  2693     06A5                     l1797:
  2694     06A5  3000               	movlw	0
  2695     06A6  00A3               	movwf	?___fldiv+3
  2696     06A7  3000               	movlw	0
  2697     06A8  00A2               	movwf	?___fldiv+2
  2698     06A9  3000               	movlw	0
  2699     06AA  00A1               	movwf	?___fldiv+1
  2700     06AB  3000               	movlw	0
  2701     06AC  00A0               	movwf	?___fldiv
  2702     06AD  2FFB               	goto	l665
  2703     06AE                     l1801:
  2704     06AE  0838               	movf	___fldiv@bexp,w
  2705     06AF  00A8               	movwf	??___fldiv
  2706     06B0  01A9               	clrf	??___fldiv+1
  2707     06B1  0829               	movf	??___fldiv+1,w
  2708     06B2  00AB               	movwf	??___fldiv+3
  2709     06B3  0839               	movf	___fldiv@aexp,w
  2710     06B4  0228               	subwf	??___fldiv,w
  2711     06B5  00AA               	movwf	??___fldiv+2
  2712     06B6  1C03               	skipc
  2713     06B7  03AB               	decf	??___fldiv+3,f
  2714     06B8  082A               	movf	??___fldiv+2,w
  2715     06B9  3E7F               	addlw	127
  2716     06BA  00B2               	movwf	___fldiv@new_exp
  2717     06BB  082B               	movf	??___fldiv+3,w
  2718     06BC  1803               	skipnc
  2719     06BD  3E01               	addlw	1
  2720     06BE  3E00               	addlw	0
  2721     06BF  00B3               	movwf	___fldiv@new_exp+1
  2722     06C0                     l1803:
  2723     06C0  0827               	movf	___fldiv@b+3,w
  2724     06C1  00B0               	movwf	___fldiv@rem+3
  2725     06C2  0826               	movf	___fldiv@b+2,w
  2726     06C3  00AF               	movwf	___fldiv@rem+2
  2727     06C4  0825               	movf	___fldiv@b+1,w
  2728     06C5  00AE               	movwf	___fldiv@rem+1
  2729     06C6  0824               	movf	___fldiv@b,w
  2730     06C7  00AD               	movwf	___fldiv@rem
  2731     06C8                     l1805:
  2732     06C8  3000               	movlw	0
  2733     06C9  00A7               	movwf	___fldiv@b+3
  2734     06CA  3000               	movlw	0
  2735     06CB  00A6               	movwf	___fldiv@b+2
  2736     06CC  3000               	movlw	0
  2737     06CD  00A5               	movwf	___fldiv@b+1
  2738     06CE  3000               	movlw	0
  2739     06CF  00A4               	movwf	___fldiv@b
  2740     06D0                     l1807:
  2741     06D0  3000               	movlw	0
  2742     06D1  00B7               	movwf	___fldiv@grs+3
  2743     06D2  3000               	movlw	0
  2744     06D3  00B6               	movwf	___fldiv@grs+2
  2745     06D4  3000               	movlw	0
  2746     06D5  00B5               	movwf	___fldiv@grs+1
  2747     06D6  3000               	movlw	0
  2748     06D7  00B4               	movwf	___fldiv@grs
  2749     06D8                     l1809:
  2750     06D8  01B9               	clrf	___fldiv@aexp
  2751     06D9  2F24               	goto	l1829
  2752     06DA                     l1811:
  2753     06DA  0839               	movf	___fldiv@aexp,w
  2754     06DB  1903               	btfsc	3,2
  2755     06DC  2EDE               	goto	u1691
  2756     06DD  2EDF               	goto	u1690
  2757     06DE                     u1691:
  2758     06DE  2EFF               	goto	l1821
  2759     06DF                     u1690:
  2760     06DF                     l1813:
  2761     06DF  3001               	movlw	1
  2762     06E0  00A8               	movwf	??___fldiv
  2763     06E1                     u1705:
  2764     06E1  1003               	clrc
  2765     06E2  0DAD               	rlf	___fldiv@rem,f
  2766     06E3  0DAE               	rlf	___fldiv@rem+1,f
  2767     06E4  0DAF               	rlf	___fldiv@rem+2,f
  2768     06E5  0DB0               	rlf	___fldiv@rem+3,f
  2769     06E6  0BA8               	decfsz	??___fldiv,f
  2770     06E7  2EE1               	goto	u1705
  2771     06E8  3001               	movlw	1
  2772     06E9  00A8               	movwf	??___fldiv
  2773     06EA                     u1715:
  2774     06EA  1003               	clrc
  2775     06EB  0DA4               	rlf	___fldiv@b,f
  2776     06EC  0DA5               	rlf	___fldiv@b+1,f
  2777     06ED  0DA6               	rlf	___fldiv@b+2,f
  2778     06EE  0DA7               	rlf	___fldiv@b+3,f
  2779     06EF  0BA8               	decfsz	??___fldiv,f
  2780     06F0  2EEA               	goto	u1715
  2781     06F1                     l1815:
  2782     06F1  1FB7               	btfss	___fldiv@grs+3,7
  2783     06F2  2EF4               	goto	u1721
  2784     06F3  2EF5               	goto	u1720
  2785     06F4                     u1721:
  2786     06F4  2EF6               	goto	l1819
  2787     06F5                     u1720:
  2788     06F5                     l1817:
  2789     06F5  1424               	bsf	___fldiv@b,0
  2790     06F6                     l1819:
  2791     06F6  3001               	movlw	1
  2792     06F7  00A8               	movwf	??___fldiv
  2793     06F8                     u1735:
  2794     06F8  1003               	clrc
  2795     06F9  0DB4               	rlf	___fldiv@grs,f
  2796     06FA  0DB5               	rlf	___fldiv@grs+1,f
  2797     06FB  0DB6               	rlf	___fldiv@grs+2,f
  2798     06FC  0DB7               	rlf	___fldiv@grs+3,f
  2799     06FD  0BA8               	decfsz	??___fldiv,f
  2800     06FE  2EF8               	goto	u1735
  2801     06FF                     l1821:
  2802     06FF  0823               	movf	___fldiv@a+3,w
  2803     0700  0230               	subwf	___fldiv@rem+3,w
  2804     0701  1D03               	skipz
  2805     0702  2F0D               	goto	u1745
  2806     0703  0822               	movf	___fldiv@a+2,w
  2807     0704  022F               	subwf	___fldiv@rem+2,w
  2808     0705  1D03               	skipz
  2809     0706  2F0D               	goto	u1745
  2810     0707  0821               	movf	___fldiv@a+1,w
  2811     0708  022E               	subwf	___fldiv@rem+1,w
  2812     0709  1D03               	skipz
  2813     070A  2F0D               	goto	u1745
  2814     070B  0820               	movf	___fldiv@a,w
  2815     070C  022D               	subwf	___fldiv@rem,w
  2816     070D                     u1745:
  2817     070D  1C03               	skipc
  2818     070E  2F10               	goto	u1741
  2819     070F  2F11               	goto	u1740
  2820     0710                     u1741:
  2821     0710  2F20               	goto	l1827
  2822     0711                     u1740:
  2823     0711                     l1823:
  2824     0711  1737               	bsf	___fldiv@grs+3,6
  2825     0712                     l1825:
  2826     0712  0820               	movf	___fldiv@a,w
  2827     0713  02AD               	subwf	___fldiv@rem,f
  2828     0714  0821               	movf	___fldiv@a+1,w
  2829     0715  1C03               	skipc
  2830     0716  0F21               	incfsz	___fldiv@a+1,w
  2831     0717  02AE               	subwf	___fldiv@rem+1,f
  2832     0718  0822               	movf	___fldiv@a+2,w
  2833     0719  1C03               	skipc
  2834     071A  0F22               	incfsz	___fldiv@a+2,w
  2835     071B  02AF               	subwf	___fldiv@rem+2,f
  2836     071C  0823               	movf	___fldiv@a+3,w
  2837     071D  1C03               	skipc
  2838     071E  0F23               	incfsz	___fldiv@a+3,w
  2839     071F  02B0               	subwf	___fldiv@rem+3,f
  2840     0720                     l1827:
  2841     0720  3001               	movlw	1
  2842     0721  00A8               	movwf	??___fldiv
  2843     0722  0828               	movf	??___fldiv,w
  2844     0723  07B9               	addwf	___fldiv@aexp,f
  2845     0724                     l1829:
  2846     0724  301A               	movlw	26
  2847     0725  0239               	subwf	___fldiv@aexp,w
  2848     0726  1C03               	skipc
  2849     0727  2F29               	goto	u1751
  2850     0728  2F2A               	goto	u1750
  2851     0729                     u1751:
  2852     0729  2EDA               	goto	l1811
  2853     072A                     u1750:
  2854     072A                     l1831:
  2855     072A  0830               	movf	___fldiv@rem+3,w
  2856     072B  042F               	iorwf	___fldiv@rem+2,w
  2857     072C  042E               	iorwf	___fldiv@rem+1,w
  2858     072D  042D               	iorwf	___fldiv@rem,w
  2859     072E  1903               	skipnz
  2860     072F  2F31               	goto	u1761
  2861     0730  2F32               	goto	u1760
  2862     0731                     u1761:
  2863     0731  2F51               	goto	l1845
  2864     0732                     u1760:
  2865     0732                     l1833:
  2866     0732  1434               	bsf	___fldiv@grs,0
  2867     0733  2F51               	goto	l1845
  2868     0734                     l1835:
  2869     0734  3001               	movlw	1
  2870     0735  00A8               	movwf	??___fldiv
  2871     0736                     u1775:
  2872     0736  1003               	clrc
  2873     0737  0DA4               	rlf	___fldiv@b,f
  2874     0738  0DA5               	rlf	___fldiv@b+1,f
  2875     0739  0DA6               	rlf	___fldiv@b+2,f
  2876     073A  0DA7               	rlf	___fldiv@b+3,f
  2877     073B  0BA8               	decfsz	??___fldiv,f
  2878     073C  2F36               	goto	u1775
  2879     073D                     l1837:
  2880     073D  1FB7               	btfss	___fldiv@grs+3,7
  2881     073E  2F40               	goto	u1781
  2882     073F  2F41               	goto	u1780
  2883     0740                     u1781:
  2884     0740  2F42               	goto	l1841
  2885     0741                     u1780:
  2886     0741                     l1839:
  2887     0741  1424               	bsf	___fldiv@b,0
  2888     0742                     l1841:
  2889     0742  3001               	movlw	1
  2890     0743  00A8               	movwf	??___fldiv
  2891     0744                     u1795:
  2892     0744  1003               	clrc
  2893     0745  0DB4               	rlf	___fldiv@grs,f
  2894     0746  0DB5               	rlf	___fldiv@grs+1,f
  2895     0747  0DB6               	rlf	___fldiv@grs+2,f
  2896     0748  0DB7               	rlf	___fldiv@grs+3,f
  2897     0749  0BA8               	decfsz	??___fldiv,f
  2898     074A  2F44               	goto	u1795
  2899     074B                     l1843:
  2900     074B  30FF               	movlw	255
  2901     074C  07B2               	addwf	___fldiv@new_exp,f
  2902     074D  1803               	skipnc
  2903     074E  0AB3               	incf	___fldiv@new_exp+1,f
  2904     074F  30FF               	movlw	255
  2905     0750  07B3               	addwf	___fldiv@new_exp+1,f
  2906     0751                     l1845:
  2907     0751  1FA6               	btfss	___fldiv@b+2,7
  2908     0752  2F54               	goto	u1801
  2909     0753  2F55               	goto	u1800
  2910     0754                     u1801:
  2911     0754  2F34               	goto	l1835
  2912     0755                     u1800:
  2913     0755                     l1847:
  2914     0755  01B9               	clrf	___fldiv@aexp
  2915     0756                     l1849:
  2916     0756  1FB7               	btfss	___fldiv@grs+3,7
  2917     0757  2F59               	goto	u1811
  2918     0758  2F5A               	goto	u1810
  2919     0759                     u1811:
  2920     0759  2F76               	goto	l1857
  2921     075A                     u1810:
  2922     075A                     l1851:
  2923     075A  30FF               	movlw	255
  2924     075B  0534               	andwf	___fldiv@grs,w
  2925     075C  00A8               	movwf	??___fldiv
  2926     075D  30FF               	movlw	255
  2927     075E  0535               	andwf	___fldiv@grs+1,w
  2928     075F  00A9               	movwf	??___fldiv+1
  2929     0760  30FF               	movlw	255
  2930     0761  0536               	andwf	___fldiv@grs+2,w
  2931     0762  00AA               	movwf	??___fldiv+2
  2932     0763  307F               	movlw	127
  2933     0764  0537               	andwf	___fldiv@grs+3,w
  2934     0765  00AB               	movwf	??___fldiv+3
  2935     0766  082B               	movf	??___fldiv+3,w
  2936     0767  042A               	iorwf	??___fldiv+2,w
  2937     0768  0429               	iorwf	??___fldiv+1,w
  2938     0769  0428               	iorwf	??___fldiv,w
  2939     076A  1903               	skipnz
  2940     076B  2F6D               	goto	u1821
  2941     076C  2F6E               	goto	u1820
  2942     076D                     u1821:
  2943     076D  2F71               	goto	l679
  2944     076E                     u1820:
  2945     076E                     l1853:
  2946     076E  01B9               	clrf	___fldiv@aexp
  2947     076F  0AB9               	incf	___fldiv@aexp,f
  2948     0770  2F76               	goto	l1857
  2949     0771                     l679:
  2950     0771  1C24               	btfss	___fldiv@b,0
  2951     0772  2F74               	goto	u1831
  2952     0773  2F75               	goto	u1830
  2953     0774                     u1831:
  2954     0774  2F76               	goto	l1857
  2955     0775                     u1830:
  2956     0775  2F6E               	goto	l1853
  2957     0776                     l1857:
  2958     0776  0839               	movf	___fldiv@aexp,w
  2959     0777  1903               	btfsc	3,2
  2960     0778  2F7A               	goto	u1841
  2961     0779  2F7B               	goto	u1840
  2962     077A                     u1841:
  2963     077A  2FAC               	goto	l1867
  2964     077B                     u1840:
  2965     077B                     l1859:
  2966     077B  3001               	movlw	1
  2967     077C  07A4               	addwf	___fldiv@b,f
  2968     077D  3000               	movlw	0
  2969     077E  1803               	skipnc
  2970     077F  3001               	movlw	1
  2971     0780  07A5               	addwf	___fldiv@b+1,f
  2972     0781  3000               	movlw	0
  2973     0782  1803               	skipnc
  2974     0783  3001               	movlw	1
  2975     0784  07A6               	addwf	___fldiv@b+2,f
  2976     0785  3000               	movlw	0
  2977     0786  1803               	skipnc
  2978     0787  3001               	movlw	1
  2979     0788  07A7               	addwf	___fldiv@b+3,f
  2980     0789                     l1861:
  2981     0789  1C27               	btfss	___fldiv@b+3,0
  2982     078A  2F8C               	goto	u1851
  2983     078B  2F8D               	goto	u1850
  2984     078C                     u1851:
  2985     078C  2FAC               	goto	l1867
  2986     078D                     u1850:
  2987     078D                     l1863:
  2988     078D  0824               	movf	___fldiv@b,w
  2989     078E  00A8               	movwf	??___fldiv
  2990     078F  0825               	movf	___fldiv@b+1,w
  2991     0790  00A9               	movwf	??___fldiv+1
  2992     0791  0826               	movf	___fldiv@b+2,w
  2993     0792  00AA               	movwf	??___fldiv+2
  2994     0793  0827               	movf	___fldiv@b+3,w
  2995     0794  00AB               	movwf	??___fldiv+3
  2996     0795  3001               	movlw	1
  2997     0796  00AC               	movwf	??___fldiv+4
  2998     0797                     u1865:
  2999     0797  0D2B               	rlf	??___fldiv+3,w
  3000     0798  0CAB               	rrf	??___fldiv+3,f
  3001     0799  0CAA               	rrf	??___fldiv+2,f
  3002     079A  0CA9               	rrf	??___fldiv+1,f
  3003     079B  0CA8               	rrf	??___fldiv,f
  3004     079C                     u1860:
  3005     079C  0BAC               	decfsz	??___fldiv+4,f
  3006     079D  2F97               	goto	u1865
  3007     079E  082B               	movf	??___fldiv+3,w
  3008     079F  00A7               	movwf	___fldiv@b+3
  3009     07A0  082A               	movf	??___fldiv+2,w
  3010     07A1  00A6               	movwf	___fldiv@b+2
  3011     07A2  0829               	movf	??___fldiv+1,w
  3012     07A3  00A5               	movwf	___fldiv@b+1
  3013     07A4  0828               	movf	??___fldiv,w
  3014     07A5  00A4               	movwf	___fldiv@b
  3015     07A6                     l1865:
  3016     07A6  3001               	movlw	1
  3017     07A7  07B2               	addwf	___fldiv@new_exp,f
  3018     07A8  1803               	skipnc
  3019     07A9  0AB3               	incf	___fldiv@new_exp+1,f
  3020     07AA  3000               	movlw	0
  3021     07AB  07B3               	addwf	___fldiv@new_exp+1,f
  3022     07AC                     l1867:
  3023     07AC  0833               	movf	___fldiv@new_exp+1,w
  3024     07AD  3A80               	xorlw	128
  3025     07AE  00FF               	movwf	btemp+1
  3026     07AF  3080               	movlw	128
  3027     07B0  027F               	subwf	btemp+1,w
  3028     07B1  1D03               	skipz
  3029     07B2  2FB5               	goto	u1875
  3030     07B3  30FF               	movlw	255
  3031     07B4  0232               	subwf	___fldiv@new_exp,w
  3032     07B5                     u1875:
  3033     07B5  1C03               	skipc
  3034     07B6  2FB8               	goto	u1871
  3035     07B7  2FB9               	goto	u1870
  3036     07B8                     u1871:
  3037     07B8  2FC7               	goto	l1871
  3038     07B9                     u1870:
  3039     07B9                     l1869:
  3040     07B9  30FF               	movlw	255
  3041     07BA  1283               	bcf	3,5	;RP0=0, select bank0
  3042     07BB  1303               	bcf	3,6	;RP1=0, select bank0
  3043     07BC  00B2               	movwf	___fldiv@new_exp
  3044     07BD  3000               	movlw	0
  3045     07BE  00B3               	movwf	___fldiv@new_exp+1
  3046     07BF  3000               	movlw	0
  3047     07C0  00A7               	movwf	___fldiv@b+3
  3048     07C1  3000               	movlw	0
  3049     07C2  00A6               	movwf	___fldiv@b+2
  3050     07C3  3000               	movlw	0
  3051     07C4  00A5               	movwf	___fldiv@b+1
  3052     07C5  3000               	movlw	0
  3053     07C6  00A4               	movwf	___fldiv@b
  3054     07C7                     l1871:
  3055     07C7  1283               	bcf	3,5	;RP0=0, select bank0
  3056     07C8  1303               	bcf	3,6	;RP1=0, select bank0
  3057     07C9  0833               	movf	___fldiv@new_exp+1,w
  3058     07CA  3A80               	xorlw	128
  3059     07CB  00FF               	movwf	btemp+1
  3060     07CC  3080               	movlw	128
  3061     07CD  027F               	subwf	btemp+1,w
  3062     07CE  1D03               	skipz
  3063     07CF  2FD2               	goto	u1885
  3064     07D0  3001               	movlw	1
  3065     07D1  0232               	subwf	___fldiv@new_exp,w
  3066     07D2                     u1885:
  3067     07D2  1803               	skipnc
  3068     07D3  2FD5               	goto	u1881
  3069     07D4  2FD6               	goto	u1880
  3070     07D5                     u1881:
  3071     07D5  2FE3               	goto	l685
  3072     07D6                     u1880:
  3073     07D6                     l1873:
  3074     07D6  1283               	bcf	3,5	;RP0=0, select bank0
  3075     07D7  1303               	bcf	3,6	;RP1=0, select bank0
  3076     07D8  01B2               	clrf	___fldiv@new_exp
  3077     07D9  01B3               	clrf	___fldiv@new_exp+1
  3078     07DA                     l1875:
  3079     07DA  3000               	movlw	0
  3080     07DB  00A7               	movwf	___fldiv@b+3
  3081     07DC  3000               	movlw	0
  3082     07DD  00A6               	movwf	___fldiv@b+2
  3083     07DE  3000               	movlw	0
  3084     07DF  00A5               	movwf	___fldiv@b+1
  3085     07E0  3000               	movlw	0
  3086     07E1  00A4               	movwf	___fldiv@b
  3087     07E2                     l1877:
  3088     07E2  01B1               	clrf	___fldiv@sign
  3089     07E3                     l685:
  3090     07E3  1283               	bcf	3,5	;RP0=0, select bank0
  3091     07E4  1303               	bcf	3,6	;RP1=0, select bank0
  3092     07E5  0832               	movf	___fldiv@new_exp,w
  3093     07E6  00B8               	movwf	___fldiv@bexp
  3094     07E7                     l1879:
  3095     07E7  1C38               	btfss	___fldiv@bexp,0
  3096     07E8  2FEA               	goto	u1891
  3097     07E9  2FEB               	goto	u1890
  3098     07EA                     u1891:
  3099     07EA  2FED               	goto	l1883
  3100     07EB                     u1890:
  3101     07EB                     l1881:
  3102     07EB  17A6               	bsf	___fldiv@b+2,7
  3103     07EC  2FF1               	goto	l687
  3104     07ED                     l1883:
  3105     07ED  307F               	movlw	127
  3106     07EE  00A8               	movwf	??___fldiv
  3107     07EF  0828               	movf	??___fldiv,w
  3108     07F0  05A6               	andwf	___fldiv@b+2,f
  3109     07F1                     l687:
  3110     07F1  0838               	movf	___fldiv@bexp,w
  3111     07F2  00A8               	movwf	??___fldiv
  3112     07F3  1003               	clrc
  3113     07F4  0C28               	rrf	??___fldiv,w
  3114     07F5  00A7               	movwf	___fldiv@b+3
  3115     07F6  0831               	movf	___fldiv@sign,w
  3116     07F7  00A8               	movwf	??___fldiv
  3117     07F8  0828               	movf	??___fldiv,w
  3118     07F9  04A7               	iorwf	___fldiv@b+3,f
  3119     07FA  2E97               	goto	l1791
  3120     07FB                     l665:
  3121     07FB  0008               	return
  3122     07FC                     __end_of___fldiv:
  3123                           
  3124                           	psect	text9
  3125     0128                     __ptext9:	
  3126 ;; *************** function _LCD_putrs *****************
  3127 ;; Defined at:
  3128 ;;		line 97 in file "lcd.c"
  3129 ;; Parameters:    Size  Location     Type
  3130 ;;  a               2    3[COMMON] PTR const unsigned char 
  3131 ;;		 -> STR_4(13), STR_3(3), STR_2(12), main@txt(4), 
  3132 ;; Auto vars:     Size  Location     Type
  3133 ;;  i               2    8[COMMON] int 
  3134 ;; Return value:  Size  Location     Type
  3135 ;;                  1    wreg      void 
  3136 ;; Registers used:
  3137 ;;		wreg, fsr0l, fsr0h, status,2, status,0, btemp+1, pclath, cstack
  3138 ;; Tracked objects:
  3139 ;;		On entry : 0/0
  3140 ;;		On exit  : 0/0
  3141 ;;		Unchanged: 0/0
  3142 ;; Data sizes:     COMMON   BANK0   BANK1   BANK3   BANK2
  3143 ;;      Params:         2       0       0       0       0
  3144 ;;      Locals:         2       0       0       0       0
  3145 ;;      Temps:          3       0       0       0       0
  3146 ;;      Totals:         7       0       0       0       0
  3147 ;;Total ram usage:        7 bytes
  3148 ;; Hardware stack levels used: 1
  3149 ;; Hardware stack levels required when called: 2
  3150 ;; This function calls:
  3151 ;;		_LCD_putc
  3152 ;; This function is called by:
  3153 ;;		_main
  3154 ;; This function uses a non-reentrant model
  3155 ;;
  3156                           
  3157     0128                     _LCD_putrs:	
  3158                           ;psect for function _LCD_putrs
  3159                           
  3160     0128                     l1585:	
  3161                           ;incstack = 0
  3162                           ; Regs used in _LCD_putrs: [wreg-fsr0h+status,2+status,0+btemp+1+pclath+cstack]
  3163                           
  3164                           
  3165                           ;lcd.c: 99:     for ( int i = 0; a[i] != '\0'; ++i ) {
  3166     0128  01F8               	clrf	LCD_putrs@i
  3167     0129  01F9               	clrf	LCD_putrs@i+1
  3168     012A  294D               	goto	l1591
  3169     012B                     l1587:
  3170                           
  3171                           ;lcd.c: 100:         LCD_putc(a[i]);
  3172     012B  0878               	movf	LCD_putrs@i,w
  3173     012C  0773               	addwf	LCD_putrs@a,w
  3174     012D  00F6               	movwf	??_LCD_putrs+1
  3175     012E  0874               	movf	LCD_putrs@a+1,w
  3176     012F  00F5               	movwf	??_LCD_putrs
  3177     0130  1803               	skipnc
  3178     0131  0AF5               	incf	??_LCD_putrs,f
  3179     0132  1FF8               	btfss	LCD_putrs@i,7
  3180     0133  2935               	goto	u1300
  3181     0134  03F5               	decf	??_LCD_putrs,f
  3182     0135                     u1300:
  3183     0135  0875               	movf	??_LCD_putrs,w
  3184     0136  00F7               	movwf	??_LCD_putrs+2
  3185     0137  0877               	movf	??_LCD_putrs+2,w
  3186     0138  1283               	bcf	3,5	;RP0=0, select bank0
  3187     0139  1303               	bcf	3,6	;RP1=0, select bank0
  3188     013A  00FF               	movwf	btemp+1
  3189     013B  0876               	movf	??_LCD_putrs+1,w
  3190     013C  0084               	movwf	4
  3191     013D  120A  118A  2003  120A  118A  	fcall	stringtab
  3192     0142  120A  118A  20BF  120A  118A  	fcall	_LCD_putc
  3193     0147                     l1589:
  3194                           
  3195                           ;lcd.c: 101:     }
  3196     0147  3001               	movlw	1
  3197     0148  07F8               	addwf	LCD_putrs@i,f
  3198     0149  1803               	skipnc
  3199     014A  0AF9               	incf	LCD_putrs@i+1,f
  3200     014B  3000               	movlw	0
  3201     014C  07F9               	addwf	LCD_putrs@i+1,f
  3202     014D                     l1591:
  3203     014D  0878               	movf	LCD_putrs@i,w
  3204     014E  0773               	addwf	LCD_putrs@a,w
  3205     014F  00F6               	movwf	??_LCD_putrs+1
  3206     0150  0874               	movf	LCD_putrs@a+1,w
  3207     0151  00F5               	movwf	??_LCD_putrs
  3208     0152  1803               	skipnc
  3209     0153  0AF5               	incf	??_LCD_putrs,f
  3210     0154  1FF8               	btfss	LCD_putrs@i,7
  3211     0155  2957               	goto	u1310
  3212     0156  03F5               	decf	??_LCD_putrs,f
  3213     0157                     u1310:
  3214     0157  0875               	movf	??_LCD_putrs,w
  3215     0158  00F7               	movwf	??_LCD_putrs+2
  3216     0159  0877               	movf	??_LCD_putrs+2,w
  3217     015A  1283               	bcf	3,5	;RP0=0, select bank0
  3218     015B  1303               	bcf	3,6	;RP1=0, select bank0
  3219     015C  00FF               	movwf	btemp+1
  3220     015D  0876               	movf	??_LCD_putrs+1,w
  3221     015E  0084               	movwf	4
  3222     015F  120A  118A  2003  120A  118A  	fcall	stringtab
  3223     0164  3A00               	xorlw	0
  3224     0165  1D03               	skipz
  3225     0166  2968               	goto	u1321
  3226     0167  2969               	goto	u1320
  3227     0168                     u1321:
  3228     0168  292B               	goto	l1587
  3229     0169                     u1320:
  3230     0169                     l59:
  3231     0169  0008               	return
  3232     016A                     __end_of_LCD_putrs:
  3233                           
  3234                           	psect	text10
  3235     00BF                     __ptext10:	
  3236 ;; *************** function _LCD_putc *****************
  3237 ;; Defined at:
  3238 ;;		line 72 in file "lcd.c"
  3239 ;; Parameters:    Size  Location     Type
  3240 ;;  c               1    wreg     unsigned char 
  3241 ;; Auto vars:     Size  Location     Type
  3242 ;;  c               1    2[COMMON] unsigned char 
  3243 ;; Return value:  Size  Location     Type
  3244 ;;                  1    wreg      void 
  3245 ;; Registers used:
  3246 ;;		wreg, status,2, status,0, pclath, cstack
  3247 ;; Tracked objects:
  3248 ;;		On entry : 0/0
  3249 ;;		On exit  : 0/0
  3250 ;;		Unchanged: 0/0
  3251 ;; Data sizes:     COMMON   BANK0   BANK1   BANK3   BANK2
  3252 ;;      Params:         0       0       0       0       0
  3253 ;;      Locals:         1       0       0       0       0
  3254 ;;      Temps:          1       0       0       0       0
  3255 ;;      Totals:         2       0       0       0       0
  3256 ;;Total ram usage:        2 bytes
  3257 ;; Hardware stack levels used: 1
  3258 ;; Hardware stack levels required when called: 1
  3259 ;; This function calls:
  3260 ;;		_LCD_Out
  3261 ;; This function is called by:
  3262 ;;		_LCD_putrs
  3263 ;;		_LCD_puts
  3264 ;; This function uses a non-reentrant model
  3265 ;;
  3266                           
  3267     00BF                     _LCD_putc:	
  3268                           ;psect for function _LCD_putc
  3269                           
  3270                           
  3271                           ;incstack = 0
  3272                           ; Regs used in _LCD_putc: [wreg+status,2+status,0+pclath+cstack]
  3273                           ;LCD_putc@c stored from wreg
  3274     00BF  00F2               	movwf	LCD_putc@c
  3275     00C0                     l1463:
  3276                           
  3277                           ;lcd.c: 74:     RE1 = 1;
  3278     00C0  1283               	bcf	3,5	;RP0=0, select bank0
  3279     00C1  1303               	bcf	3,6	;RP1=0, select bank0
  3280     00C2  1489               	bsf	9,1	;volatile
  3281     00C3                     l1465:
  3282                           
  3283                           ;lcd.c: 75:     LCD_Out((c & 0xF0) >> 4);
  3284     00C3  0872               	movf	LCD_putc@c,w
  3285     00C4  00F1               	movwf	??_LCD_putc
  3286     00C5  3004               	movlw	4
  3287     00C6                     u1095:
  3288     00C6  1003               	clrc
  3289     00C7  0CF1               	rrf	??_LCD_putc,f
  3290     00C8  3EFF               	addlw	-1
  3291     00C9  1D03               	skipz
  3292     00CA  28C6               	goto	u1095
  3293     00CB  0871               	movf	??_LCD_putc,w
  3294     00CC  390F               	andlw	15
  3295     00CD  120A  118A  2078  120A  118A  	fcall	_LCD_Out
  3296     00D2                     l1467:
  3297                           
  3298                           ;lcd.c: 77:     RE0 = 1;
  3299     00D2  1283               	bcf	3,5	;RP0=0, select bank0
  3300     00D3  1303               	bcf	3,6	;RP1=0, select bank0
  3301     00D4  1409               	bsf	9,0	;volatile
  3302     00D5                     l1469:
  3303                           
  3304                           ;lcd.c: 78:     _delay((unsigned long)((40)*(10000000/4000000.0)));
  3305     00D5  3021               	movlw	33
  3306     00D6  00F1               	movwf	??_LCD_putc
  3307     00D7                     u2117:
  3308     00D7  0BF1               	decfsz	??_LCD_putc,f
  3309     00D8  28D7               	goto	u2117
  3310     00D9                     l1471:
  3311                           
  3312                           ;lcd.c: 79:     RE0 = 0;
  3313     00D9  1283               	bcf	3,5	;RP0=0, select bank0
  3314     00DA  1303               	bcf	3,6	;RP1=0, select bank0
  3315     00DB  1009               	bcf	9,0	;volatile
  3316     00DC                     l1473:
  3317                           
  3318                           ;lcd.c: 81:     LCD_Out(c & 0x0F);
  3319     00DC  0872               	movf	LCD_putc@c,w
  3320     00DD  390F               	andlw	15
  3321     00DE  120A  118A  2078  120A  118A  	fcall	_LCD_Out
  3322     00E3                     l1475:
  3323                           
  3324                           ;lcd.c: 83:     RE0 = 1;
  3325     00E3  1283               	bcf	3,5	;RP0=0, select bank0
  3326     00E4  1303               	bcf	3,6	;RP1=0, select bank0
  3327     00E5  1409               	bsf	9,0	;volatile
  3328                           
  3329                           ;lcd.c: 84:     _delay((unsigned long)((40)*(10000000/4000000.0)));
  3330     00E6  3021               	movlw	33
  3331     00E7  00F1               	movwf	??_LCD_putc
  3332     00E8                     u2127:
  3333     00E8  0BF1               	decfsz	??_LCD_putc,f
  3334     00E9  28E8               	goto	u2127
  3335     00EA                     l1477:
  3336                           
  3337                           ;lcd.c: 85:     RE0 = 0;
  3338     00EA  1283               	bcf	3,5	;RP0=0, select bank0
  3339     00EB  1303               	bcf	3,6	;RP1=0, select bank0
  3340     00EC  1009               	bcf	9,0	;volatile
  3341     00ED                     l47:
  3342     00ED  0008               	return
  3343     00EE                     __end_of_LCD_putc:
  3344                           
  3345                           	psect	text11
  3346     01AE                     __ptext11:	
  3347 ;; *************** function _LCD_Init *****************
  3348 ;; Defined at:
  3349 ;;		line 45 in file "lcd.c"
  3350 ;; Parameters:    Size  Location     Type
  3351 ;;		None
  3352 ;; Auto vars:     Size  Location     Type
  3353 ;;  cmd             1    6[COMMON] unsigned char 
  3354 ;; Return value:  Size  Location     Type
  3355 ;;                  1    wreg      _Bool 
  3356 ;; Registers used:
  3357 ;;		wreg, status,2, status,0, pclath, cstack
  3358 ;; Tracked objects:
  3359 ;;		On entry : 0/0
  3360 ;;		On exit  : 0/0
  3361 ;;		Unchanged: 0/0
  3362 ;; Data sizes:     COMMON   BANK0   BANK1   BANK3   BANK2
  3363 ;;      Params:         0       0       0       0       0
  3364 ;;      Locals:         1       0       0       0       0
  3365 ;;      Temps:          2       0       0       0       0
  3366 ;;      Totals:         3       0       0       0       0
  3367 ;;Total ram usage:        3 bytes
  3368 ;; Hardware stack levels used: 1
  3369 ;; Hardware stack levels required when called: 2
  3370 ;; This function calls:
  3371 ;;		_LCD_Write
  3372 ;; This function is called by:
  3373 ;;		_main
  3374 ;; This function uses a non-reentrant model
  3375 ;;
  3376                           
  3377     01AE                     _LCD_Init:	
  3378                           ;psect for function _LCD_Init
  3379                           
  3380     01AE                     l1553:	
  3381                           ;incstack = 0
  3382                           ; Regs used in _LCD_Init: [wreg+status,2+status,0+pclath+cstack]
  3383                           
  3384                           
  3385                           ;lcd.c: 47:     _delay((unsigned long)((20)*(10000000/4000.0)));
  3386     01AE  3041               	movlw	65
  3387     01AF  00F5               	movwf	??_LCD_Init+1
  3388     01B0  30EE               	movlw	238
  3389     01B1  00F4               	movwf	??_LCD_Init
  3390     01B2                     u2137:
  3391     01B2  0BF4               	decfsz	??_LCD_Init,f
  3392     01B3  29B2               	goto	u2137
  3393     01B4  0BF5               	decfsz	??_LCD_Init+1,f
  3394     01B5  29B2               	goto	u2137
  3395     01B6  0000               	nop
  3396     01B7                     l1555:
  3397                           
  3398                           ;lcd.c: 50:     LCD_Write(0x03);
  3399     01B7  3003               	movlw	3
  3400     01B8  120A  118A  205E  120A  118A  	fcall	_LCD_Write
  3401     01BD                     l1557:
  3402                           
  3403                           ;lcd.c: 51:     _delay((unsigned long)((5)*(10000000/4000.0)));
  3404     01BD  3011               	movlw	17
  3405     01BE  00F5               	movwf	??_LCD_Init+1
  3406     01BF  303A               	movlw	58
  3407     01C0  00F4               	movwf	??_LCD_Init
  3408     01C1                     u2147:
  3409     01C1  0BF4               	decfsz	??_LCD_Init,f
  3410     01C2  29C1               	goto	u2147
  3411     01C3  0BF5               	decfsz	??_LCD_Init+1,f
  3412     01C4  29C1               	goto	u2147
  3413     01C5  0000               	nop
  3414                           
  3415                           ;lcd.c: 52:     LCD_Write(0x03);
  3416     01C6  3003               	movlw	3
  3417     01C7  120A  118A  205E  120A  118A  	fcall	_LCD_Write
  3418     01CC                     l1559:
  3419                           
  3420                           ;lcd.c: 53:     _delay((unsigned long)((16)*(10000000/4000.0)));
  3421     01CC  3034               	movlw	52
  3422     01CD  00F5               	movwf	??_LCD_Init+1
  3423     01CE  30F1               	movlw	241
  3424     01CF  00F4               	movwf	??_LCD_Init
  3425     01D0                     u2157:
  3426     01D0  0BF4               	decfsz	??_LCD_Init,f
  3427     01D1  29D0               	goto	u2157
  3428     01D2  0BF5               	decfsz	??_LCD_Init+1,f
  3429     01D3  29D0               	goto	u2157
  3430     01D4  29D5               	nop2
  3431     01D5                     l1561:
  3432                           
  3433                           ;lcd.c: 54:     LCD_Write(0x03);
  3434     01D5  3003               	movlw	3
  3435     01D6  120A  118A  205E  120A  118A  	fcall	_LCD_Write
  3436     01DB                     l1563:
  3437                           
  3438                           ;lcd.c: 57:     LCD_Write(0x02);
  3439     01DB  3002               	movlw	2
  3440     01DC  120A  118A  205E  120A  118A  	fcall	_LCD_Write
  3441     01E1                     l1565:
  3442     01E1  3002               	movlw	2
  3443     01E2  120A  118A  205E  120A  118A  	fcall	_LCD_Write
  3444     01E7                     l1567:
  3445     01E7  3008               	movlw	8
  3446     01E8  120A  118A  205E  120A  118A  	fcall	_LCD_Write
  3447     01ED                     l1569:
  3448     01ED  3000               	movlw	0
  3449     01EE  120A  118A  205E  120A  118A  	fcall	_LCD_Write
  3450     01F3                     l1571:
  3451     01F3  3006               	movlw	6
  3452     01F4  120A  118A  205E  120A  118A  	fcall	_LCD_Write
  3453     01F9                     l1573:
  3454     01F9  3008               	movlw	8
  3455     01FA  00F6               	movwf	LCD_Init@cmd
  3456     01FB                     l1575:
  3457     01FB  1576               	bsf	LCD_Init@cmd,2
  3458     01FC                     l1581:
  3459     01FC  0876               	movf	LCD_Init@cmd,w
  3460     01FD  00F4               	movwf	??_LCD_Init
  3461     01FE  3004               	movlw	4
  3462     01FF                     u1295:
  3463     01FF  1003               	clrc
  3464     0200  0CF4               	rrf	??_LCD_Init,f
  3465     0201  3EFF               	addlw	-1
  3466     0202  1D03               	skipz
  3467     0203  29FF               	goto	u1295
  3468     0204  0874               	movf	??_LCD_Init,w
  3469     0205  390F               	andlw	15
  3470     0206  120A  118A  205E  120A  118A  	fcall	_LCD_Write
  3471     020B  0876               	movf	LCD_Init@cmd,w
  3472     020C  390F               	andlw	15
  3473     020D  120A  118A  205E  120A  118A  	fcall	_LCD_Write
  3474     0212                     l42:	
  3475                           ;lcd.c: 67:     do { LCD_Write( (0x01 & 0xF0) >> 4 ); LCD_Write( 0x01 & 0x0F); } while (
      +                           0 );
  3476                           
  3477     0212  3000               	movlw	0
  3478     0213  120A  118A  205E  120A  118A  	fcall	_LCD_Write
  3479     0218  3001               	movlw	1
  3480     0219  120A  118A  205E  120A  118A  	fcall	_LCD_Write
  3481     021E                     l44:
  3482     021E  0008               	return
  3483     021F                     __end_of_LCD_Init:
  3484                           
  3485                           	psect	text12
  3486     005E                     __ptext12:	
  3487 ;; *************** function _LCD_Write *****************
  3488 ;; Defined at:
  3489 ;;		line 34 in file "lcd.c"
  3490 ;; Parameters:    Size  Location     Type
  3491 ;;  c               1    wreg     unsigned char 
  3492 ;; Auto vars:     Size  Location     Type
  3493 ;;  c               1    3[COMMON] unsigned char 
  3494 ;; Return value:  Size  Location     Type
  3495 ;;                  1    wreg      void 
  3496 ;; Registers used:
  3497 ;;		wreg, status,2, status,0, pclath, cstack
  3498 ;; Tracked objects:
  3499 ;;		On entry : 0/0
  3500 ;;		On exit  : 0/0
  3501 ;;		Unchanged: 0/0
  3502 ;; Data sizes:     COMMON   BANK0   BANK1   BANK3   BANK2
  3503 ;;      Params:         0       0       0       0       0
  3504 ;;      Locals:         1       0       0       0       0
  3505 ;;      Temps:          2       0       0       0       0
  3506 ;;      Totals:         3       0       0       0       0
  3507 ;;Total ram usage:        3 bytes
  3508 ;; Hardware stack levels used: 1
  3509 ;; Hardware stack levels required when called: 1
  3510 ;; This function calls:
  3511 ;;		_LCD_Out
  3512 ;; This function is called by:
  3513 ;;		_LCD_Init
  3514 ;;		_main
  3515 ;; This function uses a non-reentrant model
  3516 ;;
  3517                           
  3518     005E                     _LCD_Write:	
  3519                           ;psect for function _LCD_Write
  3520                           
  3521                           
  3522                           ;incstack = 0
  3523                           ; Regs used in _LCD_Write: [wreg+status,2+status,0+pclath+cstack]
  3524                           ;LCD_Write@c stored from wreg
  3525     005E  00F3               	movwf	LCD_Write@c
  3526     005F                     l1453:
  3527                           
  3528                           ;lcd.c: 36:     RE1 = 0;
  3529     005F  1283               	bcf	3,5	;RP0=0, select bank0
  3530     0060  1303               	bcf	3,6	;RP1=0, select bank0
  3531     0061  1089               	bcf	9,1	;volatile
  3532     0062                     l1455:
  3533                           
  3534                           ;lcd.c: 37:     LCD_Out(c);
  3535     0062  0873               	movf	LCD_Write@c,w
  3536     0063  120A  118A  2078  120A  118A  	fcall	_LCD_Out
  3537     0068                     l1457:
  3538                           
  3539                           ;lcd.c: 39:     RE0 = 1;
  3540     0068  1283               	bcf	3,5	;RP0=0, select bank0
  3541     0069  1303               	bcf	3,6	;RP1=0, select bank0
  3542     006A  1409               	bsf	9,0	;volatile
  3543     006B                     l1459:
  3544                           
  3545                           ;lcd.c: 40:     _delay((unsigned long)((4)*(10000000/4000.0)));
  3546     006B  300D               	movlw	13
  3547     006C  00F2               	movwf	??_LCD_Write+1
  3548     006D  30FB               	movlw	251
  3549     006E  00F1               	movwf	??_LCD_Write
  3550     006F                     u2167:
  3551     006F  0BF1               	decfsz	??_LCD_Write,f
  3552     0070  286F               	goto	u2167
  3553     0071  0BF2               	decfsz	??_LCD_Write+1,f
  3554     0072  286F               	goto	u2167
  3555     0073  2874               	nop2
  3556     0074                     l1461:
  3557                           
  3558                           ;lcd.c: 41:     RE0 = 0;
  3559     0074  1283               	bcf	3,5	;RP0=0, select bank0
  3560     0075  1303               	bcf	3,6	;RP1=0, select bank0
  3561     0076  1009               	bcf	9,0	;volatile
  3562     0077                     l28:
  3563     0077  0008               	return
  3564     0078                     __end_of_LCD_Write:
  3565                           
  3566                           	psect	text13
  3567     0078                     __ptext13:	
  3568 ;; *************** function _LCD_Out *****************
  3569 ;; Defined at:
  3570 ;;		line 15 in file "lcd.c"
  3571 ;; Parameters:    Size  Location     Type
  3572 ;;  c               1    wreg     unsigned char 
  3573 ;; Auto vars:     Size  Location     Type
  3574 ;;  c               1    0[COMMON] unsigned char 
  3575 ;; Return value:  Size  Location     Type
  3576 ;;                  1    wreg      void 
  3577 ;; Registers used:
  3578 ;;		wreg
  3579 ;; Tracked objects:
  3580 ;;		On entry : 0/0
  3581 ;;		On exit  : 0/0
  3582 ;;		Unchanged: 0/0
  3583 ;; Data sizes:     COMMON   BANK0   BANK1   BANK3   BANK2
  3584 ;;      Params:         0       0       0       0       0
  3585 ;;      Locals:         1       0       0       0       0
  3586 ;;      Temps:          0       0       0       0       0
  3587 ;;      Totals:         1       0       0       0       0
  3588 ;;Total ram usage:        1 bytes
  3589 ;; Hardware stack levels used: 1
  3590 ;; This function calls:
  3591 ;;		Nothing
  3592 ;; This function is called by:
  3593 ;;		_LCD_Write
  3594 ;;		_LCD_putc
  3595 ;; This function uses a non-reentrant model
  3596 ;;
  3597                           
  3598     0078                     _LCD_Out:	
  3599                           ;psect for function _LCD_Out
  3600                           
  3601                           
  3602                           ;incstack = 0
  3603                           ; Regs used in _LCD_Out: [wreg]
  3604                           ;LCD_Out@c stored from wreg
  3605     0078  00F0               	movwf	LCD_Out@c
  3606     0079                     l1443:
  3607                           
  3608                           ;lcd.c: 16:     if(c & 1)
  3609     0079  1C70               	btfss	LCD_Out@c,0
  3610     007A  287C               	goto	u1051
  3611     007B  287D               	goto	u1050
  3612     007C                     u1051:
  3613     007C  2881               	goto	l17
  3614     007D                     u1050:
  3615     007D                     l1445:
  3616                           
  3617                           ;lcd.c: 17:         RD4 = 1;
  3618     007D  1283               	bcf	3,5	;RP0=0, select bank0
  3619     007E  1303               	bcf	3,6	;RP1=0, select bank0
  3620     007F  1608               	bsf	8,4	;volatile
  3621     0080  2884               	goto	l18
  3622     0081                     l17:	
  3623                           ;lcd.c: 18:      else
  3624                           
  3625                           
  3626                           ;lcd.c: 19:         RD4 = 0;
  3627     0081  1283               	bcf	3,5	;RP0=0, select bank0
  3628     0082  1303               	bcf	3,6	;RP1=0, select bank0
  3629     0083  1208               	bcf	8,4	;volatile
  3630     0084                     l18:
  3631                           
  3632                           ;lcd.c: 20:      if(c & 2)
  3633     0084  1CF0               	btfss	LCD_Out@c,1
  3634     0085  2887               	goto	u1061
  3635     0086  2888               	goto	u1060
  3636     0087                     u1061:
  3637     0087  288A               	goto	l19
  3638     0088                     u1060:
  3639     0088                     l1447:
  3640                           
  3641                           ;lcd.c: 21:         RD5 = 1;
  3642     0088  1688               	bsf	8,5	;volatile
  3643     0089  288B               	goto	l20
  3644     008A                     l19:	
  3645                           ;lcd.c: 22:      else
  3646                           
  3647                           
  3648                           ;lcd.c: 23:         RD5 = 0;
  3649     008A  1288               	bcf	8,5	;volatile
  3650     008B                     l20:
  3651                           
  3652                           ;lcd.c: 24:      if(c & 4)
  3653     008B  1D70               	btfss	LCD_Out@c,2
  3654     008C  288E               	goto	u1071
  3655     008D  288F               	goto	u1070
  3656     008E                     u1071:
  3657     008E  2891               	goto	l21
  3658     008F                     u1070:
  3659     008F                     l1449:
  3660                           
  3661                           ;lcd.c: 25:         RD6 = 1;
  3662     008F  1708               	bsf	8,6	;volatile
  3663     0090  2892               	goto	l22
  3664     0091                     l21:	
  3665                           ;lcd.c: 26:      else
  3666                           
  3667                           
  3668                           ;lcd.c: 27:         RD6 = 0;
  3669     0091  1308               	bcf	8,6	;volatile
  3670     0092                     l22:
  3671                           
  3672                           ;lcd.c: 28:      if(c & 8)
  3673     0092  1DF0               	btfss	LCD_Out@c,3
  3674     0093  2895               	goto	u1081
  3675     0094  2896               	goto	u1080
  3676     0095                     u1081:
  3677     0095  2898               	goto	l23
  3678     0096                     u1080:
  3679     0096                     l1451:
  3680                           
  3681                           ;lcd.c: 29:         RD7 = 1;
  3682     0096  1788               	bsf	8,7	;volatile
  3683     0097  2899               	goto	l25
  3684     0098                     l23:	
  3685                           ;lcd.c: 30:      else
  3686                           
  3687                           
  3688                           ;lcd.c: 31:         RD7 = 0;
  3689     0098  1388               	bcf	8,7	;volatile
  3690     0099                     l25:
  3691     0099  0008               	return
  3692     009A                     __end_of_LCD_Out:
  3693     007E                     btemp	set	126	;btemp
  3694     007E                     wtemp0	set	126
  3695                           
  3696                           	psect	config
  3697                           
  3698                           ;Config register CONFIG @ 0x2007
  3699                           ;	Oscillator Selection bits
  3700                           ;	FOSC = HS, HS oscillator
  3701                           ;	Watchdog Timer Enable bit
  3702                           ;	WDTE = OFF, WDT disabled
  3703                           ;	Power-up Timer Enable bit
  3704                           ;	PWRTE = OFF, PWRT disabled
  3705                           ;	Brown-out Reset Enable bit
  3706                           ;	BOREN = OFF, BOR disabled
  3707                           ;	Low-Voltage (Single-Supply) In-Circuit Serial Programming Enable bit
  3708                           ;	LVP = OFF, RB3 is digital I/O, HV on MCLR must be used for programming
  3709                           ;	Data EEPROM Memory Code Protection bit
  3710                           ;	CPD = OFF, Data EEPROM code protection off
  3711                           ;	Flash Program Memory Write Enable bits
  3712                           ;	WRT = OFF, Write protection off; all program memory may be written to by EECON control
  3713                           ;	In-Circuit Debugger Mode bit
  3714                           ;	DEBUG = 0x1, unprogrammed default
  3715                           ;	Flash Program Memory Code Protection bit
  3716                           ;	CP = OFF, Code protection off
  3717     2007                     	org	8199
  3718     2007  3F3A               	dw	16186

Data Sizes:
    Strings     33
    Constant    10
    Data        0
    BSS         0
    Persistent  0
    Stack       0

Auto Spaces:
    Space          Size  Autos    Used
    COMMON           14     14      14
    BANK0            80     45      45
    BANK1            80      0       0
    BANK3            96      0       0
    BANK2            96      0       0

Pointer List with Targets:

    sprintf@f	PTR const unsigned char  size(1) Largest target is 5
		 -> STR_1(CODE[5]), 

    sprintf@sp	PTR unsigned char  size(1) Largest target is 4
		 -> main@txt(BANK0[4]), 

    sprintf@ap	PTR void [1] size(1) Largest target is 2
		 -> ?_sprintf(BANK0[2]), 

    LCD_putrs@a	PTR const unsigned char  size(2) Largest target is 13
		 -> STR_4(CODE[13]), STR_3(CODE[3]), STR_2(CODE[12]), main@txt(BANK0[4]), 


Critical Paths under _main in COMMON

    _main->___xxtofl
    _sprintf->___lwmod
    ___lwmod->___lwdiv
    ___fltol->___xxtofl
    ___fldiv->___xxtofl
    _LCD_putrs->_LCD_putc
    _LCD_putc->_LCD_Out
    _LCD_Init->_LCD_Write
    _LCD_Write->_LCD_Out

Critical Paths under _main in BANK0

    _main->___fltol
    ___fltol->___fldiv

Critical Paths under _main in BANK1

    None.

Critical Paths under _main in BANK3

    None.

Critical Paths under _main in BANK2

    None.

Call Graph Tables:

 ---------------------------------------------------------------------------------
 (Depth) Function   	        Calls       Base Space   Used Autos Params    Refs
 ---------------------------------------------------------------------------------
 (0) _main                                                 9     9      0    4897
                                             36 BANK0      9     9      0
                           _LCD_Init
                          _LCD_Write
                          _LCD_putrs
                            ___fldiv
                            ___fltol
                           ___xxtofl
                            _sprintf
 ---------------------------------------------------------------------------------
 (1) _sprintf                                             23    20      3    1954
                                              0 BANK0     15    12      3
                            ___lwdiv
                            ___lwmod
                             ___wmul
                            _isdigit
 ---------------------------------------------------------------------------------
 (2) _isdigit                                              2     2      0      68
                                              0 COMMON     2     2      0
 ---------------------------------------------------------------------------------
 (2) ___wmul                                               6     2      4     244
                                              0 COMMON     6     2      4
 ---------------------------------------------------------------------------------
 (2) ___lwmod                                              6     2      4     311
                                              8 COMMON     6     2      4
                            ___lwdiv (ARG)
 ---------------------------------------------------------------------------------
 (2) ___lwdiv                                              8     4      4     314
                                              0 COMMON     8     4      4
 ---------------------------------------------------------------------------------
 (1) ___xxtofl                                            14    10      4     398
                                              0 COMMON    14    10      4
 ---------------------------------------------------------------------------------
 (1) ___fltol                                             10     6      4     305
                                             26 BANK0     10     6      4
                            ___fldiv (ARG)
                           ___xxtofl (ARG)
 ---------------------------------------------------------------------------------
 (1) ___fldiv                                             26    18      8    1273
                                              0 BANK0     26    18      8
                           ___xxtofl (ARG)
 ---------------------------------------------------------------------------------
 (1) _LCD_putrs                                            7     5      2     526
                                              3 COMMON     7     5      2
                           _LCD_putc
 ---------------------------------------------------------------------------------
 (2) _LCD_putc                                             2     2      0     132
                                              1 COMMON     2     2      0
                            _LCD_Out
 ---------------------------------------------------------------------------------
 (1) _LCD_Init                                             3     3      0     158
                                              4 COMMON     3     3      0
                          _LCD_Write
 ---------------------------------------------------------------------------------
 (1) _LCD_Write                                            3     3      0     110
                                              1 COMMON     3     3      0
                            _LCD_Out
 ---------------------------------------------------------------------------------
 (3) _LCD_Out                                              1     1      0      88
                                              0 COMMON     1     1      0
 ---------------------------------------------------------------------------------
 Estimated maximum stack depth 3
 ---------------------------------------------------------------------------------

 Call Graph Graphs:

 _main (ROOT)
   _LCD_Init
     _LCD_Write
       _LCD_Out
   _LCD_Write
   _LCD_putrs
     _LCD_putc
       _LCD_Out
   ___fldiv
     ___xxtofl (ARG)
   ___fltol
     ___fldiv (ARG)
     ___xxtofl (ARG)
   ___xxtofl
   _sprintf
     ___lwdiv
     ___lwmod
       ___lwdiv (ARG)
     ___wmul
     _isdigit

 Address spaces:
Name               Size   Autos  Total    Cost      Usage
BITCOMMON            E      0       0       0        0.0%
EEDATA             100      0       0       0        0.0%
NULL                 0      0       0       0        0.0%
CODE                 0      0       0       0        0.0%
COMMON               E      E       E       1      100.0%
BITSFR0              0      0       0       1        0.0%
SFR0                 0      0       0       1        0.0%
BITSFR1              0      0       0       2        0.0%
SFR1                 0      0       0       2        0.0%
STACK                0      0       0       2        0.0%
ABS                  0      0       0       3        0.0%
BITBANK0            50      0       0       4        0.0%
BITSFR3              0      0       0       4        0.0%
SFR3                 0      0       0       4        0.0%
BANK0               50     2D      2D       5       56.2%
BITSFR2              0      0       0       5        0.0%
SFR2                 0      0       0       5        0.0%
BITBANK1            50      0       0       6        0.0%
BANK1               50      0       0       7        0.0%
BITBANK3            60      0       0       8        0.0%
BANK3               60      0       0       9        0.0%
BITBANK2            60      0       0      10        0.0%
BANK2               60      0       0      11        0.0%
DATA                 0      0       0      12        0.0%


Microchip Technology PIC Macro Assembler V2.40 build 20220703182018 
Symbol Table                                                                                   Mon Sep 19 15:38:57 2022

           ___fldiv@aexp 0039             ___fldiv@bexp 0038                        pc 0002  
           ___fldiv@sign 0031                       l20 008B                       l21 0091  
                     l22 0092                       l23 0098                       l25 0099  
                     l17 0081                       l18 0084                       l42 0212  
                     l19 008A                       l28 0077                       l44 021E  
                     l47 00ED                       l59 0169                       l95 0371  
                     l97 0375                       l98 0376                       fsr 0004  
    ___wmul@multiplicand 0072                      l100 037A                      l310 0628  
                    l314 00A6                      l500 0296                      l316 00BE  
                    l510 0296                      l507 0281                      l275 0485  
                    l293 055F                      l663 067F                      l760 0318  
                    l665 07FB                      l761 0324                      l753 02FC  
                    l586 01AD                      l747 02B9                      l596 0127  
                    l685 07E3                      l749 034E                      l687 07F1  
                    l679 0771                      l767 005D                      _RB4 0034  
                    _RB5 0035                      _RE0 0048                      _RE1 0049  
                    _RD4 0044                      _RD5 0045                      _RD6 0046  
                    _RD7 0047                      fsr0 0004                      indf 0000  
        __end_of_LCD_Out 009A             ___fltol@exp1 0043                     l2011 0444  
                   l2005 042E                     l2007 0438                     l2017 0450  
                   l2019 0459                     l1501 00BA                     l2061 0498  
                   l1511 0175                     l2063 0501                     l1521 019B  
                   l1513 017C                     l1505 016A                     l1601 0481  
                   l1451 0096                     l1443 0079                     l1523 019C  
                   l1515 0180                     l1507 016C                     l1531 00EE  
                   l1611 04AD                     l1603 0486                     l1445 007D  
                   l1461 0074                     l1453 005F                     l1525 01A3  
                   l1517 0184                     l1509 0172                     l1541 0106  
                   l1533 00F4                     l1613 04B1                     l1447 0088  
                   l1455 0062                     l1471 00D9                     l1463 00C0  
                   l1711 021F                     l1519 0195                     l1527 01A9  
                   l1543 0110                     l1535 00F7                     l1631 051C  
                   l1615 04C6                     l1623 04ED                     l1607 048A  
                   l1449 008F                     l1457 0068                     l1561 01D5  
                   l1553 01AE                     l1473 00DC                     l1465 00C3  
                   l1801 06AE                     l1721 0247                     l1713 022A  
                   l1545 0116                     l1537 00FE                     l1481 004E  
                   l1641 0527                     l1633 0520                     l1625 050C  
                   l1617 04D9                     l1609 049D                     l1459 006B  
                   l1571 01F3                     l1563 01DB                     l1555 01B7  
                   l1475 00E3                     l1467 00D2                     l1811 06DA  
                   l1803 06C0                     l1723 024F                     l1547 011D  
                   l1539 0102                     l1491 009A                     l1483 0054  
                   l1651 0559                     l1635 0525                     l1627 0514  
                   l1619 04DD                     l1581 01FC                     l1573 01F9  
                   l1565 01E1                     l1557 01BD                     l1477 00EA  
                   l1469 00D5                     l1813 06DF                     l1821 06FF  
                   l1805 06C8                     l1741 0276                     l1733 025D  
                   l1725 0251                     l1717 0233                     l1901 02CA  
                   l1549 0123                     l1493 009C                     l1485 005A  
                   l1661 0584                     l1653 056A                     l1645 0543  
                   l1629 0518                     l1575 01FB                     l1567 01E7  
                   l1559 01CC                     l1591 014D                     l1831 072A  
                   l1823 0711                     l1815 06F1                     l1807 06D0  
                   l1751 0632                     l1743 0286                     l1727 0255  
                   l1735 026F                     l1719 0246                     l1911 02F3  
                   l1903 02CD                     l1495 00A0                     l1487 005C  
                   l1479 004D                     l1671 059C                     l1663 0589  
                   l1655 0576                     l1647 054D                     l1569 01ED  
                   l1585 0128                     l1841 0742                     l1833 0732  
                   l1825 0712                     l1817 06F5                     l1809 06D8  
                   l1761 0649                     l1753 0636                     l1745 028B  
                   l1921 0326                     l1913 0303                     l1905 02DA  
                   l1497 00AD                     l1681 05C4                     l1665 058D  
                   l1673 05A9                     l1657 057A                     l1649 0553  
                   l1593 046E                     l1587 012B                     l1851 075A  
                   l1843 074B                     l1835 0734                     l1827 0720  
                   l1819 06F6                     l1771 065D                     l1763 064A  
                   l1755 0637                     l1747 0629                     l1923 033C  
                   l1915 030E                     l1907 02E1                     l1499 00B4  
                   l1691 0602                     l1683 05CA                     l1675 05AF  
                   l1667 0593                     l1659 057E                     l1595 0471  
                   l1589 0147                     l1861 0789                     l1853 076E  
                   l1837 073D                     l1845 0751                     l1829 0724  
                   l1781 0674                     l1773 0661                     l1757 063C  
                   l1765 064C                     l1749 062E                     l1925 0341  
                   l1917 0312                     l1909 02E5                     l1693 0607  
                   l1685 05CF                     l1677 05B4                     l1669 0598  
                   l1597 0477                     l1941 034F                     l1871 07C7  
                   l1863 078D                     l1847 0755                     l1839 0741  
                   l1791 0697                     l1783 0675                     l1775 0662  
                   l1767 0654                     l1759 0641                     l1927 0345  
                   l1919 031C                     l1695 060B                     l1679 05B8  
                   l1687 05D3                     l1599 047C                     l1951 0362  
                   l1943 0353                     l1881 07EB                     l1873 07D6  
                   l1865 07A6                     l1857 0776                     l1849 0756  
                   l1777 0667                     l1785 0677                     l1769 0659  
                   l1929 0346                     l1689 05D6                     l1697 0614  
                   l1961 037B                     l1953 0365                     l1945 0355  
                   l1883 07ED                     l1875 07DA                     l1859 077B  
                   l1867 07AC                     l1787 0687                     l1795 06A0  
                   l1779 066C                     l1891 029D                     l1699 0624  
                   l1971 03DE                     l1963 037F                     l1955 0366  
                   l1947 035A                     l1877 07E2                     l1869 07B9  
                   l1797 06A5                     l1789 0693                     l1893 02A1  
                   l1973 03EC                     l1965 03BA                     l1957 0367  
                   l1949 035E                     l1879 07E7                     l1895 02B1  
                   l1975 03F2                     l1967 03C2                     l1959 036E  
                   l1897 02C1                     l1889 0298                     l1985 0404  
                   l1969 03CF                     l1995 0419                     l1979 03F8  
                   l1989 040D                     l1999 0422                     STR_1 0036  
                   STR_2 002A                     STR_3 003B                     STR_4 001D  
                   u1100 0054                     u1101 0053                     u1110 005A  
                   u1111 0059                     u2000 031C                     u1200 0195  
                   u1120 00A0                     u2001 031B                     u1201 0194  
                   u1121 009F                     u1050 007D                     u2010 0331  
                   u1051 007C                     u1060 0088                     u1300 0135  
                   u2020 0341                     u1220 01A9                     u1061 0087  
                   u2021 0340                     u1221 01A8                     u1205 0191  
                   u1070 008F                     u1310 0157                     u2030 0345  
                   u1230 00F4                     u1150 00BA                     u1071 008E  
                   u2031 0344                     u2015 032C                     u1215 019D  
                   u1231 00F3                     u1151 00B9                     u1135 00A7  
                   u1080 0096                     u1320 0169                     u1160 0172  
                   u1400 0559                     u1081 0095                     u1321 0168  
                   u1161 0171                     u1145 00AE                     u1401 0558  
                   u1250 0106                     u1410 056A                     u1330 0477  
                   u2050 0375                     u1251 0105                     u1411 0569  
                   u1331 0476                     u2107 0461                     u2051 0374  
                   u1180 0184                     u1260 0110                     u1500 0624  
                   u1420 057E                     u1340 04AD                     u2060 037A  
                   u2117 00D7                     u1181 0183                     u1261 010F  
                   u1245 00F8                     u1501 0623                     u1421 057D  
                   u1341 04AC                     u2061 0379                     u1510 022A  
                   u1430 0584                     u1350 04ED                     u2070 03CF  
                   u2127 00E8                     u1095 00C6                     u1511 0229  
                   u1175 0176                     u1431 0583                     u1415 0566  
                   u1351 04EC                     u2071 03CE                     u1600 028B  
                   u1520 0241                     u1280 0123                     u1440 0593  
                   u1360 051C                     u2080 03DE                     u2137 01B2  
                   u1601 028A                     u1281 0122                     u1265 010C  
                   u1441 0592                     u1361 051B                     u2081 03DD  
                   u1610 0636                     u1530 0255                     u1450 05A8  
                   u1370 0542                     u2147 01C1                     u1611 0635  
                   u1531 0254                     u1195 0185                     u1275 0117  
                   u1451 05A7                     u1371 0541                     u2075 03CB  
                   u1620 063C                     u1540 025C                     u1460 05AF  
                   u1380 054D                     u2157 01D0                     u1621 063B  
                   u1541 025B                     u1525 023C                     u1461 05AE  
                   u1381 054C                     u2085 03DA                     u1630 0641  
                   u1470 05C4                     u1390 0553                     u2167 006F  
                   u1295 01FF                     u1631 0640                     u1471 05C3  
                   u1391 0552                     u1375 053E                     u1800 0755  
                   u1720 06F5                     u1640 0661                     u1560 026E  
                   u1480 05CA                     u1801 0754                     u1721 06F4  
                   u1705 06E1                     u1641 0660                     u1561 026D  
                   u1481 05C9                     u2097 036B                     u1810 075A  
                   u1650 0667                     u1570 0275                     u1490 0614  
                   u1811 0759                     u1715 06EA                     u1651 0666  
                   u1571 0274                     u1555 025E                     u1491 0613  
                   u1820 076E                     u1740 0711                     u1660 066C  
                   u1900 029D                     u1821 076D                     u1741 0710  
                   u1661 066B                     u1901 029C                     u1830 0775  
                   u1750 072A                     u1670 0687                     u1590 0286  
                   u1910 02A1                     u1831 0774                     u1751 0729  
                   u1735 06F8                     u1671 0686                     u1591 0285  
                   u1911 02A0                     u1840 077B                     u1760 0732  
                   u1680 06A5                     u1920 02C1                     u1841 077A  
                   u1761 0731                     u1745 070D                     u1681 06A4  
                   u1585 0278                     u1921 02C0                     u1850 078D  
                   u1690 06DF                     u1851 078C                     u1691 06DE  
                   u1860 079C                     u1780 0741                     u1940 02E0  
                   u1781 0740                     u1941 02DF                     u1870 07B9  
                   u1871 07B8                     u1775 0736                     u1935 02D2  
                   u1880 07D6                     u1960 0302                     u1881 07D5  
                   u1865 0797                     u1961 0301                     u1890 07EB  
                   u1891 07EA                     u1875 07B5                     u1795 0744  
                   u1955 02F4                     u1980 0312                     u1885 07D2  
                   u1981 0311                     u1990 0318                     u1991 0317  
                   u1975 0307                     _main 034F                     btemp 007E  
                   start 0000          ___fldiv@new_exp 0032              LCD_Init@cmd 0076  
       __end_of_LCD_Init 021F         __end_of_LCD_putc 00EE            ___fltol@sign1 0042  
                  ?_main 0070          __end_of___fldiv 07FC          __end_of___fltol 0297  
                  _T1CON 0010          __end_of___lwdiv 01AE          __end_of___lwmod 0128  
                  _TMR1H 000F                    _TMR1L 000E                    _TRISB 0086  
                  _TRISD 0088                    _TRISE 0089          __end_of_dpowers 001D  
        __end_of_isdigit 005E                    main@a 004B                    pclath 000A  
                  status 0003                    wtemp0 007E          __end_of_sprintf 0629  
        __initialization 07FC             __end_of_main 046B                   ??_main 0044  
              ??_LCD_Out 0070        __end_of_LCD_Write 0078        __end_of_LCD_putrs 016A  
                 _ADCON1 009F         __end_of___xxtofl 034F                   ___wmul 009A  
              ??___fldiv 0028                ??___fltol 003E                ??___lwdiv 0074  
              ??___lwmod 007C                ??_isdigit 0070                ??_sprintf 0023  
           ___xxtofl@arg 007A             ___xxtofl@exp 0079             ___xxtofl@val 0070  
__end_of__initialization 07FC                ?_LCD_Init 0070                ?_LCD_putc 0070  
             ___fltol@f1 003A           __pcstackCOMMON 0070                LCD_putc@c 0072  
           sprintf@width 002B               ??_LCD_Init 0074               ??_LCD_putc 0071  
             __pmaintext 034F                  ?___wmul 0070                  _LCD_Out 0078  
              ?___xxtofl 0070               __stringtab 0003                  ___fldiv 0629  
                ___fltol 021F                  ___lwdiv 016A                  ___lwmod 00EE  
                __ptext1 046B                  __ptext2 004C                  __ptext3 009A  
                __ptext4 00EE                  __ptext5 016A                  __ptext6 0297  
                __ptext7 021F                  __ptext8 0629                  __ptext9 0128  
              _T1CONbits 0010                  _dpowers 0013                  _isdigit 004C  
             ??___xxtofl 0074                  _sprintf 046B                  main@txt 0047  
              _LCD_Write 005E     end_of_initialization 07FC                _LCD_putrs 0128  
          ___xxtofl@sign 0078              ___fldiv@grs 0034              ___fldiv@rem 002D  
             ?_LCD_Write 0070               ?_LCD_putrs 0073           __end_of___wmul 00BF  
             LCD_Write@c 0073      start_initialization 07FC               LCD_putrs@a 0073  
             LCD_putrs@i 0078                 ??___wmul 0074                ___fldiv@a 0020  
              ___fldiv@b 0024                 ?_LCD_Out 0070                ___latbits 0002  
          __pcstackBANK0 0020                 LCD_Out@c 0070              ??_LCD_Write 0071  
            ??_LCD_putrs 0075              sprintf@flag 002A              sprintf@prec 0027  
       ___lwdiv@dividend 0072                 ?___fldiv 0020                 ?___fltol 003A  
               ?___lwdiv 0070                 ?___lwmod 0078                __pstrings 0003  
               ?_isdigit 0070         ___lwdiv@quotient 0075                 ?_sprintf 0020  
               _LCD_Init 01AE           ___wmul@product 0074                 _LCD_putc 00BF  
            __stringbase 0012        ___wmul@multiplier 0070       __end_of__stringtab 0013  
            _isdigit$599 0070               sprintf@val 0028                 ___xxtofl 0297  
        ___lwdiv@divisor 0070          ___lwdiv@counter 0077                 __ptext10 00BF  
               __ptext11 01AE                 __ptext12 005E                 __ptext13 0078  
               isdigit@c 0071                sprintf@ap 0026                sprintf@sp 002D  
       ___lwmod@dividend 007A                stringcode 000D                 sprintf@c 002E  
               sprintf@f 0020          ___lwmod@divisor 0078          ___lwmod@counter 007D  
               stringdir 000D                 stringtab 0003  
